
========================================================================

** ELF Header Information

    File Name: .\obj\UART_TxRxFunction.axf

    Machine class: ELFCLASS32 (32-bit)
    Data encoding: ELFDATA2LSB (Little endian)
    Header version: EV_CURRENT (Current version)
    Operating System ABI: none
    ABI Version: 0
    File Type: ET_EXEC (Executable) (2)
    Machine: EM_ARM (ARM)

    Image Entry point: 0x000000f5
    Flags: EF_ARM_HASENTRY + EF_ARM_ABI_FLOAT_SOFT (0x05000202)

    ARM ELF revision: 5 (ABI version 2)

    Conforms to Soft float procedure-call standard

    Built with
    Component: ARM Compiler 5.06 update 7 (build 960) Tool: armasm [4d35fa]
    Component: ARM Compiler 5.06 update 7 (build 960) Tool: armlink [4d3601]

    Header size: 52 bytes (0x34)
    Program header entry size: 32 bytes (0x20)
    Section header entry size: 40 bytes (0x28)

    Program header entries: 1
    Section header entries: 16

    Program header offset: 226392 (0x00037458)
    Section header offset: 226424 (0x00037478)

    Section header string table index: 15

========================================================================

** Program header #0 (PT_LOAD) [PF_X + PF_W + PF_R + PF_ARM_ENTRY]
    Size : 4780 bytes (3588 bytes in file)
    Virtual address: 0x00000000 (Alignment 8)


========================================================================

** Section #1 'ER_RO' (SHT_PROGBITS) [SHF_ALLOC + SHF_EXECINSTR]
    Size   : 3508 bytes (alignment 4)
    Address: 0x00000000

    $d.realdata
    RESET
    __Vectors
        0x00000000:    200004f8    ...     DCD    536872184
        0x00000004:    000000f5    ....    DCD    245
        0x00000008:    00000115    ....    DCD    277
        0x0000000c:    000000d9    ....    DCD    217
        0x00000010:    00000000    ....    DCD    0
        0x00000014:    00000000    ....    DCD    0
        0x00000018:    00000000    ....    DCD    0
        0x0000001c:    00000000    ....    DCD    0
        0x00000020:    00000000    ....    DCD    0
        0x00000024:    00000000    ....    DCD    0
        0x00000028:    00000000    ....    DCD    0
        0x0000002c:    00000119    ....    DCD    281
        0x00000030:    00000000    ....    DCD    0
        0x00000034:    00000000    ....    DCD    0
        0x00000038:    0000011b    ....    DCD    283
        0x0000003c:    0000011d    ....    DCD    285
        0x00000040:    0000011f    ....    DCD    287
        0x00000044:    0000011f    ....    DCD    287
        0x00000048:    0000011f    ....    DCD    287
        0x0000004c:    0000011f    ....    DCD    287
        0x00000050:    0000011f    ....    DCD    287
        0x00000054:    0000011f    ....    DCD    287
        0x00000058:    0000011f    ....    DCD    287
        0x0000005c:    0000011f    ....    DCD    287
        0x00000060:    0000011f    ....    DCD    287
        0x00000064:    0000011f    ....    DCD    287
        0x00000068:    0000011f    ....    DCD    287
        0x0000006c:    0000011f    ....    DCD    287
        0x00000070:    00000581    ....    DCD    1409
        0x00000074:    000005bd    ....    DCD    1469
        0x00000078:    0000011f    ....    DCD    287
        0x0000007c:    0000011f    ....    DCD    287
        0x00000080:    0000011f    ....    DCD    287
        0x00000084:    0000011f    ....    DCD    287
        0x00000088:    0000011f    ....    DCD    287
        0x0000008c:    0000011f    ....    DCD    287
        0x00000090:    0000011f    ....    DCD    287
        0x00000094:    0000011f    ....    DCD    287
        0x00000098:    0000011f    ....    DCD    287
        0x0000009c:    0000011f    ....    DCD    287
        0x000000a0:    0000011f    ....    DCD    287
        0x000000a4:    0000011f    ....    DCD    287
        0x000000a8:    0000011f    ....    DCD    287
        0x000000ac:    0000011f    ....    DCD    287
        0x000000b0:    0000011f    ....    DCD    287
        0x000000b4:    0000011f    ....    DCD    287
        0x000000b8:    0000011f    ....    DCD    287
        0x000000bc:    0000011f    ....    DCD    287
    $t
    .ARM.Collect$$$$00000000
    .ARM.Collect$$$$00000001
    __main
    _main_stk
        0x000000c0:    4804        .H      LDR      r0,__lit__00000000 ; [0xd4] = 0x200004f8
        0x000000c2:    4685        .F      MOV      sp,r0
    .ARM.Collect$$$$00000004
    _main_scatterload
        0x000000c4:    f000f894    ....    BL       __scatterload ; 0x1f0
    .ARM.Collect$$$$00000008
    .ARM.Collect$$$$0000000A
    .ARM.Collect$$$$0000000B
    __main_after_scatterload
    _main_clock
    _main_cpp_init
    _main_init
        0x000000c8:    4800        .H      LDR      r0,[pc,#0] ; [0xcc] = 0xad9
        0x000000ca:    4700        .G      BX       r0
    $d
        0x000000cc:    00000ad9    ....    DCD    2777
    $t
    .ARM.Collect$$$$0000000E
    __rt_lib_shutdown_fini
        0x000000d0:    46c0        .F      MOV      r8,r8
        0x000000d2:    46c0        .F      MOV      r8,r8
    $d
    .ARM.Collect$$$$00002712
    __lit__00000000
    .ARM.Collect$$$$0000000F
    .ARM.Collect$$$$00000011
    __rt_final_cpp
    __rt_final_exit
        0x000000d4:    200004f8    ...     DCD    536872184
    $t
    .emb_text
    HardFault_Handler
        0x000000d8:    2004        .       MOVS     r0,#4
        0x000000da:    4671        qF      MOV      r1,lr
        0x000000dc:    4208        .B      TST      r0,r1
        0x000000de:    d002        ..      BEQ      0xe6 ; HardFault_Handler + 14
        0x000000e0:    f3ef8009    ....    MRS      r0,PSP
        0x000000e4:    e001        ..      B        0xea ; HardFault_Handler + 18
        0x000000e6:    f3ef8008    ....    MRS      r0,MSP
        0x000000ea:    4671        qF      MOV      r1,lr
        0x000000ec:    4a00        .J      LDR      r2,[pc,#0] ; [0xf0] = 0x3c9
        0x000000ee:    4710        .G      BX       r2
    $d
        0x000000f0:    000003c9    ....    DCD    969
    $t
    .text
    Reset_Handler
        0x000000f4:    480a        .H      LDR      r0,[pc,#40] ; [0x120] = 0x50000100
        0x000000f6:    490b        .I      LDR      r1,[pc,#44] ; [0x124] = 0x59
        0x000000f8:    6001        .`      STR      r1,[r0,#0]
        0x000000fa:    490b        .I      LDR      r1,[pc,#44] ; [0x128] = 0x16
        0x000000fc:    6001        .`      STR      r1,[r0,#0]
        0x000000fe:    490b        .I      LDR      r1,[pc,#44] ; [0x12c] = 0x88
        0x00000100:    6001        .`      STR      r1,[r0,#0]
        0x00000102:    4a0b        .J      LDR      r2,[pc,#44] ; [0x130] = 0x50000024
        0x00000104:    490b        .I      LDR      r1,[pc,#44] ; [0x134] = 0x5aa5
        0x00000106:    6011        .`      STR      r1,[r2,#0]
        0x00000108:    2100        .!      MOVS     r1,#0
        0x0000010a:    6001        .`      STR      r1,[r0,#0]
        0x0000010c:    480a        .H      LDR      r0,[pc,#40] ; [0x138] = 0x57d
        0x0000010e:    4780        .G      BLX      r0
        0x00000110:    480a        .H      LDR      r0,[pc,#40] ; [0x13c] = 0xc1
        0x00000112:    4700        .G      BX       r0
    NMI_Handler
        0x00000114:    e7fe        ..      B        NMI_Handler ; 0x114
        0x00000116:    e7fe        ..      B        0x116 ; NMI_Handler + 2
    SVC_Handler
        0x00000118:    e7fe        ..      B        SVC_Handler ; 0x118
    PendSV_Handler
        0x0000011a:    e7fe        ..      B        PendSV_Handler ; 0x11a
    SysTick_Handler
        0x0000011c:    e7fe        ..      B        SysTick_Handler ; 0x11c
    Default_Handler
    ADC_IRQHandler
    BOD_IRQHandler
    BPWM0_IRQHandler
    BPWM1_IRQHandler
    BRAKE0_IRQHandler
    BRAKE1_IRQHandler
    CAN0_IRQHandler
    CAN1_IRQHandler
    CKD_IRQHandler
    EINT0_IRQHandler
    EINT1_IRQHandler
    GPAB_IRQHandler
    GPCDEF_IRQHandler
    I2C0_IRQHandler
    I2C1_IRQHandler
    PWM0_IRQHandler
    PWM1_IRQHandler
    PWRWU_IRQHandler
    RTC_IRQHandler
    SPI0_IRQHandler
    TMR0_IRQHandler
    TMR1_IRQHandler
    TMR2_IRQHandler
    TMR3_IRQHandler
    UART3_IRQHandler
    UART4_IRQHandler
    UART5_IRQHandler
    WDT_IRQHandler
        0x0000011e:    e7fe        ..      B        Default_Handler ; 0x11e
    $d
        0x00000120:    50000100    ...P    DCD    1342177536
        0x00000124:    00000059    Y...    DCD    89
        0x00000128:    00000016    ....    DCD    22
        0x0000012c:    00000088    ....    DCD    136
        0x00000130:    50000024    $..P    DCD    1342177316
        0x00000134:    00005aa5    .Z..    DCD    23205
        0x00000138:    0000057d    }...    DCD    1405
        0x0000013c:    000000c1    ....    DCD    193
    $t
    .text
    __aeabi_uidiv
    __aeabi_uidivmod
        0x00000140:    b530        0.      PUSH     {r4,r5,lr}
        0x00000142:    460b        .F      MOV      r3,r1
        0x00000144:    4601        .F      MOV      r1,r0
        0x00000146:    2000        .       MOVS     r0,#0
        0x00000148:    2220         "      MOVS     r2,#0x20
        0x0000014a:    2401        .$      MOVS     r4,#1
        0x0000014c:    e009        ..      B        0x162 ; __aeabi_uidiv + 34
        0x0000014e:    460d        .F      MOV      r5,r1
        0x00000150:    40d5        .@      LSRS     r5,r5,r2
        0x00000152:    429d        .B      CMP      r5,r3
        0x00000154:    d305        ..      BCC      0x162 ; __aeabi_uidiv + 34
        0x00000156:    461d        .F      MOV      r5,r3
        0x00000158:    4095        .@      LSLS     r5,r5,r2
        0x0000015a:    1b49        I.      SUBS     r1,r1,r5
        0x0000015c:    4625        %F      MOV      r5,r4
        0x0000015e:    4095        .@      LSLS     r5,r5,r2
        0x00000160:    1940        @.      ADDS     r0,r0,r5
        0x00000162:    4615        .F      MOV      r5,r2
        0x00000164:    1e52        R.      SUBS     r2,r2,#1
        0x00000166:    2d00        .-      CMP      r5,#0
        0x00000168:    dcf1        ..      BGT      0x14e ; __aeabi_uidiv + 14
        0x0000016a:    bd30        0.      POP      {r4,r5,pc}
    .text
    __aeabi_memset
    __aeabi_memset4
    __aeabi_memset8
        0x0000016c:    b2d2        ..      UXTB     r2,r2
        0x0000016e:    e001        ..      B        0x174 ; __aeabi_memset + 8
        0x00000170:    7002        .p      STRB     r2,[r0,#0]
        0x00000172:    1c40        @.      ADDS     r0,r0,#1
        0x00000174:    1e49        I.      SUBS     r1,r1,#1
        0x00000176:    d2fb        ..      BCS      0x170 ; __aeabi_memset + 4
        0x00000178:    4770        pG      BX       lr
    __aeabi_memclr
    __aeabi_memclr4
    __aeabi_memclr8
        0x0000017a:    2200        ."      MOVS     r2,#0
        0x0000017c:    e7f6        ..      B        __aeabi_memset ; 0x16c
    _memset$wrapper
        0x0000017e:    b510        ..      PUSH     {r4,lr}
        0x00000180:    4613        .F      MOV      r3,r2
        0x00000182:    460a        .F      MOV      r2,r1
        0x00000184:    4604        .F      MOV      r4,r0
        0x00000186:    4619        .F      MOV      r1,r3
        0x00000188:    f7fffff0    ....    BL       __aeabi_memset ; 0x16c
        0x0000018c:    4620         F      MOV      r0,r4
        0x0000018e:    bd10        ..      POP      {r4,pc}
    .text
    __aeabi_uldivmod
        0x00000190:    b5f0        ..      PUSH     {r4-r7,lr}
        0x00000192:    b41f        ..      PUSH     {r0-r4}
        0x00000194:    4606        .F      MOV      r6,r0
        0x00000196:    2000        .       MOVS     r0,#0
        0x00000198:    b082        ..      SUB      sp,sp,#8
        0x0000019a:    4605        .F      MOV      r5,r0
        0x0000019c:    2440        @$      MOVS     r4,#0x40
        0x0000019e:    9101        ..      STR      r1,[sp,#4]
        0x000001a0:    9000        ..      STR      r0,[sp,#0]
        0x000001a2:    e01b        ..      B        0x1dc ; __aeabi_uldivmod + 76
        0x000001a4:    9901        ..      LDR      r1,[sp,#4]
        0x000001a6:    4622        "F      MOV      r2,r4
        0x000001a8:    460f        .F      MOV      r7,r1
        0x000001aa:    4630        0F      MOV      r0,r6
        0x000001ac:    f000f842    ..B.    BL       __aeabi_llsr ; 0x234
        0x000001b0:    9a04        ..      LDR      r2,[sp,#0x10]
        0x000001b2:    9b05        ..      LDR      r3,[sp,#0x14]
        0x000001b4:    1a80        ..      SUBS     r0,r0,r2
        0x000001b6:    4199        .A      SBCS     r1,r1,r3
        0x000001b8:    d310        ..      BCC      0x1dc ; __aeabi_uldivmod + 76
        0x000001ba:    4610        .F      MOV      r0,r2
        0x000001bc:    4619        .F      MOV      r1,r3
        0x000001be:    4622        "F      MOV      r2,r4
        0x000001c0:    f000f828    ..(.    BL       __aeabi_llsl ; 0x214
        0x000001c4:    1a36        6.      SUBS     r6,r6,r0
        0x000001c6:    418f        .A      SBCS     r7,r7,r1
        0x000001c8:    9701        ..      STR      r7,[sp,#4]
        0x000001ca:    4622        "F      MOV      r2,r4
        0x000001cc:    2001        .       MOVS     r0,#1
        0x000001ce:    2100        .!      MOVS     r1,#0
        0x000001d0:    9f00        ..      LDR      r7,[sp,#0]
        0x000001d2:    f000f81f    ....    BL       __aeabi_llsl ; 0x214
        0x000001d6:    1838        8.      ADDS     r0,r7,r0
        0x000001d8:    414d        MA      ADCS     r5,r5,r1
        0x000001da:    9000        ..      STR      r0,[sp,#0]
        0x000001dc:    4620         F      MOV      r0,r4
        0x000001de:    1e64        d.      SUBS     r4,r4,#1
        0x000001e0:    2800        .(      CMP      r0,#0
        0x000001e2:    dcdf        ..      BGT      0x1a4 ; __aeabi_uldivmod + 20
        0x000001e4:    9b01        ..      LDR      r3,[sp,#4]
        0x000001e6:    9800        ..      LDR      r0,[sp,#0]
        0x000001e8:    4629        )F      MOV      r1,r5
        0x000001ea:    4632        2F      MOV      r2,r6
        0x000001ec:    b007        ..      ADD      sp,sp,#0x1c
        0x000001ee:    bdf0        ..      POP      {r4-r7,pc}
    .text
    __scatterload
    __scatterload_rt2
        0x000001f0:    4c06        .L      LDR      r4,[pc,#24] ; [0x20c] = 0xd94
        0x000001f2:    2501        .%      MOVS     r5,#1
        0x000001f4:    4e06        .N      LDR      r6,[pc,#24] ; [0x210] = 0xdb4
        0x000001f6:    e005        ..      B        0x204 ; __scatterload + 20
        0x000001f8:    68e3        .h      LDR      r3,[r4,#0xc]
        0x000001fa:    cc07        ..      LDM      r4!,{r0-r2}
        0x000001fc:    432b        +C      ORRS     r3,r3,r5
        0x000001fe:    3c0c        .<      SUBS     r4,r4,#0xc
        0x00000200:    4798        .G      BLX      r3
        0x00000202:    3410        .4      ADDS     r4,r4,#0x10
        0x00000204:    42b4        .B      CMP      r4,r6
        0x00000206:    d3f7        ..      BCC      0x1f8 ; __scatterload + 8
        0x00000208:    f7ffff5e    ..^.    BL       __main_after_scatterload ; 0xc8
    $d
        0x0000020c:    00000d94    ....    DCD    3476
        0x00000210:    00000db4    ....    DCD    3508
    $t
    .text
    __aeabi_llsl
    _ll_shift_l
        0x00000214:    b510        ..      PUSH     {r4,lr}
        0x00000216:    2a20         *      CMP      r2,#0x20
        0x00000218:    db04        ..      BLT      0x224 ; __aeabi_llsl + 16
        0x0000021a:    4601        .F      MOV      r1,r0
        0x0000021c:    3a20         :      SUBS     r2,r2,#0x20
        0x0000021e:    4091        .@      LSLS     r1,r1,r2
        0x00000220:    2000        .       MOVS     r0,#0
        0x00000222:    bd10        ..      POP      {r4,pc}
        0x00000224:    4091        .@      LSLS     r1,r1,r2
        0x00000226:    2320         #      MOVS     r3,#0x20
        0x00000228:    1a9c        ..      SUBS     r4,r3,r2
        0x0000022a:    4603        .F      MOV      r3,r0
        0x0000022c:    40e3        .@      LSRS     r3,r3,r4
        0x0000022e:    4319        .C      ORRS     r1,r1,r3
        0x00000230:    4090        .@      LSLS     r0,r0,r2
        0x00000232:    bd10        ..      POP      {r4,pc}
    .text
    __aeabi_llsr
    _ll_ushift_r
        0x00000234:    b510        ..      PUSH     {r4,lr}
        0x00000236:    2a20         *      CMP      r2,#0x20
        0x00000238:    db04        ..      BLT      0x244 ; __aeabi_llsr + 16
        0x0000023a:    4608        .F      MOV      r0,r1
        0x0000023c:    3a20         :      SUBS     r2,r2,#0x20
        0x0000023e:    40d0        .@      LSRS     r0,r0,r2
        0x00000240:    2100        .!      MOVS     r1,#0
        0x00000242:    bd10        ..      POP      {r4,pc}
        0x00000244:    460b        .F      MOV      r3,r1
        0x00000246:    40d3        .@      LSRS     r3,r3,r2
        0x00000248:    40d0        .@      LSRS     r0,r0,r2
        0x0000024a:    2420         $      MOVS     r4,#0x20
        0x0000024c:    1aa2        ..      SUBS     r2,r4,r2
        0x0000024e:    4091        .@      LSLS     r1,r1,r2
        0x00000250:    4308        .C      ORRS     r0,r0,r1
        0x00000252:    4619        .F      MOV      r1,r3
        0x00000254:    bd10        ..      POP      {r4,pc}
        0x00000256:    0000        ..      MOVS     r0,r0
    i.CLK_EnableModuleClock
    CLK_EnableModuleClock
        0x00000258:    b51f        ..      PUSH     {r0-r4,lr}
        0x0000025a:    4909        .I      LDR      r1,[pc,#36] ; [0x280] = 0xd44
        0x0000025c:    c91e        ..      LDM      r1,{r1-r4}
        0x0000025e:    9403        ..      STR      r4,[sp,#0xc]
        0x00000260:    466c        lF      MOV      r4,sp
        0x00000262:    c40e        ..      STM      r4!,{r1-r3}
        0x00000264:    0f81        ..      LSRS     r1,r0,#30
        0x00000266:    008a        ..      LSLS     r2,r1,#2
        0x00000268:    4669        iF      MOV      r1,sp
        0x0000026a:    588a        .X      LDR      r2,[r1,r2]
        0x0000026c:    4905        .I      LDR      r1,[pc,#20] ; [0x284] = 0x50000200
        0x0000026e:    1851        Q.      ADDS     r1,r2,r1
        0x00000270:    684a        Jh      LDR      r2,[r1,#4]
        0x00000272:    06c3        ..      LSLS     r3,r0,#27
        0x00000274:    0edb        ..      LSRS     r3,r3,#27
        0x00000276:    2001        .       MOVS     r0,#1
        0x00000278:    4098        .@      LSLS     r0,r0,r3
        0x0000027a:    4302        .C      ORRS     r2,r2,r0
        0x0000027c:    604a        J`      STR      r2,[r1,#4]
        0x0000027e:    bd1f        ..      POP      {r0-r4,pc}
    $d
        0x00000280:    00000d44    D...    DCD    3396
        0x00000284:    50000200    ...P    DCD    1342177792
    $t
    i.CLK_EnableXtalRC
    CLK_EnableXtalRC
        0x00000288:    4902        .I      LDR      r1,[pc,#8] ; [0x294] = 0x50000200
        0x0000028a:    680a        .h      LDR      r2,[r1,#0]
        0x0000028c:    4302        .C      ORRS     r2,r2,r0
        0x0000028e:    600a        .`      STR      r2,[r1,#0]
        0x00000290:    4770        pG      BX       lr
    $d
        0x00000292:    0000        ..      DCW    0
        0x00000294:    50000200    ...P    DCD    1342177792
    $t
    i.CLK_GetPLLClockFreq
    CLK_GetPLLClockFreq
        0x00000298:    b508        ..      PUSH     {r3,lr}
        0x0000029a:    a011        ..      ADR      r0,{pc}+0x46 ; 0x2e0
        0x0000029c:    6800        .h      LDR      r0,[r0,#0]
        0x0000029e:    9000        ..      STR      r0,[sp,#0]
        0x000002a0:    4810        .H      LDR      r0,[pc,#64] ; [0x2e4] = 0x50000200
        0x000002a2:    6a01        .j      LDR      r1,[r0,#0x20]
        0x000002a4:    1300        ..      ASRS     r0,r0,#12
        0x000002a6:    4201        .B      TST      r1,r0
        0x000002a8:    d001        ..      BEQ      0x2ae ; CLK_GetPLLClockFreq + 22
        0x000002aa:    2000        .       MOVS     r0,#0
        0x000002ac:    bd08        ..      POP      {r3,pc}
        0x000002ae:    0308        ..      LSLS     r0,r1,#12
        0x000002b0:    d501        ..      BPL      0x2b6 ; CLK_GetPLLClockFreq + 30
        0x000002b2:    480d        .H      LDR      r0,[pc,#52] ; [0x2e8] = 0x1518000
        0x000002b4:    e000        ..      B        0x2b8 ; CLK_GetPLLClockFreq + 32
        0x000002b6:    480d        .H      LDR      r0,[pc,#52] ; [0x2ec] = 0xb71b00
        0x000002b8:    038a        ..      LSLS     r2,r1,#14
        0x000002ba:    d4f7        ..      BMI      0x2ac ; CLK_GetPLLClockFreq + 20
        0x000002bc:    040a        ..      LSLS     r2,r1,#16
        0x000002be:    0f92        ..      LSRS     r2,r2,#30
        0x000002c0:    466b        kF      MOV      r3,sp
        0x000002c2:    5c9b        .\      LDRB     r3,[r3,r2]
        0x000002c4:    05ca        ..      LSLS     r2,r1,#23
        0x000002c6:    0489        ..      LSLS     r1,r1,#18
        0x000002c8:    0dd2        ..      LSRS     r2,r2,#23
        0x000002ca:    0ec9        ..      LSRS     r1,r1,#27
        0x000002cc:    1c89        ..      ADDS     r1,r1,#2
        0x000002ce:    0880        ..      LSRS     r0,r0,#2
        0x000002d0:    1c92        ..      ADDS     r2,r2,#2
        0x000002d2:    4359        YC      MULS     r1,r3,r1
        0x000002d4:    4350        PC      MULS     r0,r2,r0
        0x000002d6:    f7ffff33    ..3.    BL       __aeabi_uidiv ; 0x140
        0x000002da:    0080        ..      LSLS     r0,r0,#2
        0x000002dc:    bd08        ..      POP      {r3,pc}
    $d
        0x000002de:    0000        ..      DCW    0
        0x000002e0:    04020201    ....    DCD    67240449
        0x000002e4:    50000200    ...P    DCD    1342177792
        0x000002e8:    01518000    ..Q.    DCD    22118400
        0x000002ec:    00b71b00    ....    DCD    12000000
    $t
    i.CLK_SetHCLK
    CLK_SetHCLK
        0x000002f0:    b5f3        ..      PUSH     {r0,r1,r4-r7,lr}
        0x000002f2:    4c11        .L      LDR      r4,[pc,#68] ; [0x338] = 0x50000200
        0x000002f4:    b081        ..      SUB      sp,sp,#4
        0x000002f6:    68e5        .h      LDR      r5,[r4,#0xc]
        0x000002f8:    460f        .F      MOV      r7,r1
        0x000002fa:    2010        .       MOVS     r0,#0x10
        0x000002fc:    4005        .@      ANDS     r5,r5,r0
        0x000002fe:    6820         h      LDR      r0,[r4,#0]
        0x00000300:    2604        .&      MOVS     r6,#4
        0x00000302:    4330        0C      ORRS     r0,r0,r6
        0x00000304:    6020         `      STR      r0,[r4,#0]
        0x00000306:    2010        .       MOVS     r0,#0x10
        0x00000308:    f000f848    ..H.    BL       CLK_WaitClockReady ; 0x39c
        0x0000030c:    6920         i      LDR      r0,[r4,#0x10]
        0x0000030e:    2107        .!      MOVS     r1,#7
        0x00000310:    4308        .C      ORRS     r0,r0,r1
        0x00000312:    6120         a      STR      r0,[r4,#0x10]
        0x00000314:    69a0        .i      LDR      r0,[r4,#0x18]
        0x00000316:    0900        ..      LSRS     r0,r0,#4
        0x00000318:    0100        ..      LSLS     r0,r0,#4
        0x0000031a:    4338        8C      ORRS     r0,r0,r7
        0x0000031c:    61a0        .a      STR      r0,[r4,#0x18]
        0x0000031e:    6920         i      LDR      r0,[r4,#0x10]
        0x00000320:    4388        .C      BICS     r0,r0,r1
        0x00000322:    9901        ..      LDR      r1,[sp,#4]
        0x00000324:    4308        .C      ORRS     r0,r0,r1
        0x00000326:    6120         a      STR      r0,[r4,#0x10]
        0x00000328:    f000f8e0    ....    BL       SystemCoreClockUpdate ; 0x4ec
        0x0000032c:    2d00        .-      CMP      r5,#0
        0x0000032e:    d102        ..      BNE      0x336 ; CLK_SetHCLK + 70
        0x00000330:    6820         h      LDR      r0,[r4,#0]
        0x00000332:    43b0        .C      BICS     r0,r0,r6
        0x00000334:    6020         `      STR      r0,[r4,#0]
        0x00000336:    bdfe        ..      POP      {r1-r7,pc}
    $d
        0x00000338:    50000200    ...P    DCD    1342177792
    $t
    i.CLK_SetModuleClock
    CLK_SetModuleClock
        0x0000033c:    b57f        ..      PUSH     {r0-r6,lr}
        0x0000033e:    4b15        .K      LDR      r3,[pc,#84] ; [0x394] = 0xd34
        0x00000340:    cb78        x.      LDM      r3,{r3-r6}
        0x00000342:    9603        ..      STR      r6,[sp,#0xc]
        0x00000344:    466e        nF      MOV      r6,sp
        0x00000346:    c638        8.      STM      r6!,{r3-r5}
        0x00000348:    0a84        ..      LSRS     r4,r0,#10
        0x0000034a:    0623        #.      LSLS     r3,r4,#24
        0x0000034c:    0e1b        ..      LSRS     r3,r3,#24
        0x0000034e:    d00c        ..      BEQ      0x36a ; CLK_SetModuleClock + 46
        0x00000350:    0303        ..      LSLS     r3,r0,#12
        0x00000352:    0f9b        ..      LSRS     r3,r3,#30
        0x00000354:    4d10        .M      LDR      r5,[pc,#64] ; [0x398] = 0x50000218
        0x00000356:    009b        ..      LSLS     r3,r3,#2
        0x00000358:    195b        [.      ADDS     r3,r3,r5
        0x0000035a:    b2e5        ..      UXTB     r5,r4
        0x0000035c:    0584        ..      LSLS     r4,r0,#22
        0x0000035e:    0ee4        ..      LSRS     r4,r4,#27
        0x00000360:    40a5        .@      LSLS     r5,r5,r4
        0x00000362:    681c        .h      LDR      r4,[r3,#0]
        0x00000364:    43ac        .C      BICS     r4,r4,r5
        0x00000366:    4314        .C      ORRS     r4,r4,r2
        0x00000368:    601c        .`      STR      r4,[r3,#0]
        0x0000036a:    0e42        B.      LSRS     r2,r0,#25
        0x0000036c:    0752        R.      LSLS     r2,r2,#29
        0x0000036e:    d010        ..      BEQ      0x392 ; CLK_SetModuleClock + 86
        0x00000370:    0082        ..      LSLS     r2,r0,#2
        0x00000372:    0f92        ..      LSRS     r2,r2,#30
        0x00000374:    0092        ..      LSLS     r2,r2,#2
        0x00000376:    466b        kF      MOV      r3,sp
        0x00000378:    589a        .X      LDR      r2,[r3,r2]
        0x0000037a:    4b07        .K      LDR      r3,[pc,#28] ; [0x398] = 0x50000218
        0x0000037c:    3b08        .;      SUBS     r3,r3,#8
        0x0000037e:    18d2        ..      ADDS     r2,r2,r3
        0x00000380:    0103        ..      LSLS     r3,r0,#4
        0x00000382:    0f5b        [.      LSRS     r3,r3,#29
        0x00000384:    01c0        ..      LSLS     r0,r0,#7
        0x00000386:    0ec0        ..      LSRS     r0,r0,#27
        0x00000388:    4083        .@      LSLS     r3,r3,r0
        0x0000038a:    6810        .h      LDR      r0,[r2,#0]
        0x0000038c:    4398        .C      BICS     r0,r0,r3
        0x0000038e:    4308        .C      ORRS     r0,r0,r1
        0x00000390:    6010        .`      STR      r0,[r2,#0]
        0x00000392:    bd7f        ..      POP      {r0-r6,pc}
    $d
        0x00000394:    00000d34    4...    DCD    3380
        0x00000398:    50000218    ...P    DCD    1342177816
    $t
    i.CLK_WaitClockReady
    CLK_WaitClockReady
        0x0000039c:    b510        ..      PUSH     {r4,lr}
        0x0000039e:    4604        .F      MOV      r4,r0
        0x000003a0:    4907        .I      LDR      r1,[pc,#28] ; [0x3c0] = 0x124f80
        0x000003a2:    4b08        .K      LDR      r3,[pc,#32] ; [0x3c4] = 0x50000200
        0x000003a4:    e005        ..      B        0x3b2 ; CLK_WaitClockReady + 22
        0x000003a6:    460a        .F      MOV      r2,r1
        0x000003a8:    1e49        I.      SUBS     r1,r1,#1
        0x000003aa:    2a00        .*      CMP      r2,#0
        0x000003ac:    dc01        ..      BGT      0x3b2 ; CLK_WaitClockReady + 22
        0x000003ae:    2000        .       MOVS     r0,#0
        0x000003b0:    bd10        ..      POP      {r4,pc}
        0x000003b2:    68da        .h      LDR      r2,[r3,#0xc]
        0x000003b4:    4620         F      MOV      r0,r4
        0x000003b6:    4390        .C      BICS     r0,r0,r2
        0x000003b8:    d1f5        ..      BNE      0x3a6 ; CLK_WaitClockReady + 10
        0x000003ba:    2001        .       MOVS     r0,#1
        0x000003bc:    bd10        ..      POP      {r4,pc}
    $d
        0x000003be:    0000        ..      DCW    0
        0x000003c0:    00124f80    .O..    DCD    1200000
        0x000003c4:    50000200    ...P    DCD    1342177792
    $t
    i.Hard_Fault_Handler
    Hard_Fault_Handler
    __tagsym$$used
        0x000003c8:    4604        .F      MOV      r4,r0
        0x000003ca:    a003        ..      ADR      r0,{pc}+0xe ; 0x3d8
        0x000003cc:    f000f9b2    ....    BL       __0printf$5 ; 0x734
        0x000003d0:    4620         F      MOV      r0,r4
        0x000003d2:    f000fc5b    ..[.    BL       stackDump ; 0xc8c
        0x000003d6:    e7fe        ..      B        0x3d6 ; Hard_Fault_Handler + 14
    $d
        0x000003d8:    48206e49    In H    DCD    1210084937
        0x000003dc:    20647261    ard     DCD    543453793
        0x000003e0:    6c756146    Faul    DCD    1819631942
        0x000003e4:    61482074    t Ha    DCD    1632116852
        0x000003e8:    656c646e    ndle    DCD    1701602414
        0x000003ec:    00000a72    r...    DCD    2674
    $t
    i.NVIC_EnableIRQ
    NVIC_EnableIRQ
        0x000003f0:    06c1        ..      LSLS     r1,r0,#27
        0x000003f2:    0ec9        ..      LSRS     r1,r1,#27
        0x000003f4:    2001        .       MOVS     r0,#1
        0x000003f6:    4088        .@      LSLS     r0,r0,r1
        0x000003f8:    4901        .I      LDR      r1,[pc,#4] ; [0x400] = 0xe000e100
        0x000003fa:    6008        .`      STR      r0,[r1,#0]
        0x000003fc:    4770        pG      BX       lr
    $d
        0x000003fe:    0000        ..      DCW    0
        0x00000400:    e000e100    ....    DCD    3758153984
    $t
    i.SYS_Init
    SYS_Init
        0x00000404:    b570        p.      PUSH     {r4-r6,lr}
        0x00000406:    2001        .       MOVS     r0,#1
        0x00000408:    f7ffff3e    ..>.    BL       CLK_EnableXtalRC ; 0x288
        0x0000040c:    2001        .       MOVS     r0,#1
        0x0000040e:    f7ffffc5    ....    BL       CLK_WaitClockReady ; 0x39c
        0x00000412:    2100        .!      MOVS     r1,#0
        0x00000414:    4608        .F      MOV      r0,r1
        0x00000416:    f7ffff6b    ..k.    BL       CLK_SetHCLK ; 0x2f0
        0x0000041a:    4c22        "L      LDR      r4,[pc,#136] ; [0x4a4] = 0x5240000c
        0x0000041c:    2200        ."      MOVS     r2,#0
        0x0000041e:    2110        .!      MOVS     r1,#0x10
        0x00000420:    4620         F      MOV      r0,r4
        0x00000422:    f7ffff8b    ....    BL       CLK_SetModuleClock ; 0x33c
        0x00000426:    4620         F      MOV      r0,r4
        0x00000428:    f7ffff16    ....    BL       CLK_EnableModuleClock ; 0x258
        0x0000042c:    4c1e        .L      LDR      r4,[pc,#120] ; [0x4a8] = 0x57803d10
        0x0000042e:    4620         F      MOV      r0,r4
        0x00000430:    f7ffff12    ....    BL       CLK_EnableModuleClock ; 0x258
        0x00000434:    1c65        e.      ADDS     r5,r4,#1
        0x00000436:    4628        (F      MOV      r0,r5
        0x00000438:    f7ffff0e    ....    BL       CLK_EnableModuleClock ; 0x258
        0x0000043c:    1ca6        ..      ADDS     r6,r4,#2
        0x0000043e:    4630        0F      MOV      r0,r6
        0x00000440:    f7ffff0a    ....    BL       CLK_EnableModuleClock ; 0x258
        0x00000444:    2200        ."      MOVS     r2,#0
        0x00000446:    4611        .F      MOV      r1,r2
        0x00000448:    4620         F      MOV      r0,r4
        0x0000044a:    f7ffff77    ..w.    BL       CLK_SetModuleClock ; 0x33c
        0x0000044e:    2200        ."      MOVS     r2,#0
        0x00000450:    4611        .F      MOV      r1,r2
        0x00000452:    4628        (F      MOV      r0,r5
        0x00000454:    f7ffff72    ..r.    BL       CLK_SetModuleClock ; 0x33c
        0x00000458:    2200        ."      MOVS     r2,#0
        0x0000045a:    4611        .F      MOV      r1,r2
        0x0000045c:    4630        0F      MOV      r0,r6
        0x0000045e:    f7ffff6d    ..m.    BL       CLK_SetModuleClock ; 0x33c
        0x00000462:    f000f843    ..C.    BL       SystemCoreClockUpdate ; 0x4ec
        0x00000466:    2005        .       MOVS     r0,#5
        0x00000468:    0700        ..      LSLS     r0,r0,#28
        0x0000046a:    6b42        Bk      LDR      r2,[r0,#0x34]
        0x0000046c:    2133        3!      MOVS     r1,#0x33
        0x0000046e:    438a        .C      BICS     r2,r2,r1
        0x00000470:    6342        Bc      STR      r2,[r0,#0x34]
        0x00000472:    6b42        Bk      LDR      r2,[r0,#0x34]
        0x00000474:    430a        .C      ORRS     r2,r2,r1
        0x00000476:    6342        Bc      STR      r2,[r0,#0x34]
        0x00000478:    490c        .I      LDR      r1,[pc,#48] ; [0x4ac] = 0x50000040
        0x0000047a:    690a        .i      LDR      r2,[r1,#0x10]
        0x0000047c:    2303        .#      MOVS     r3,#3
        0x0000047e:    041b        ..      LSLS     r3,r3,#16
        0x00000480:    439a        .C      BICS     r2,r2,r3
        0x00000482:    610a        .a      STR      r2,[r1,#0x10]
        0x00000484:    6bc2        .k      LDR      r2,[r0,#0x3c]
        0x00000486:    109b        ..      ASRS     r3,r3,#2
        0x00000488:    431a        .C      ORRS     r2,r2,r3
        0x0000048a:    63c2        .c      STR      r2,[r0,#0x3c]
        0x0000048c:    6b83        .k      LDR      r3,[r0,#0x38]
        0x0000048e:    220a        ."      MOVS     r2,#0xa
        0x00000490:    4393        .C      BICS     r3,r3,r2
        0x00000492:    6383        .c      STR      r3,[r0,#0x38]
        0x00000494:    6b83        .k      LDR      r3,[r0,#0x38]
        0x00000496:    4313        .C      ORRS     r3,r3,r2
        0x00000498:    6383        .c      STR      r3,[r0,#0x38]
        0x0000049a:    6908        .i      LDR      r0,[r1,#0x10]
        0x0000049c:    6108        .a      STR      r0,[r1,#0x10]
        0x0000049e:    6908        .i      LDR      r0,[r1,#0x10]
        0x000004a0:    6108        .a      STR      r0,[r1,#0x10]
        0x000004a2:    bd70        p.      POP      {r4-r6,pc}
    $d
        0x000004a4:    5240000c    ..@R    DCD    1379926028
        0x000004a8:    57803d10    .=.W    DCD    1468022032
        0x000004ac:    50000040    @..P    DCD    1342177344
    $t
    i.SYS_ResetModule
    SYS_ResetModule
        0x000004b0:    2105        .!      MOVS     r1,#5
        0x000004b2:    0e02        ..      LSRS     r2,r0,#24
        0x000004b4:    0709        ..      LSLS     r1,r1,#28
        0x000004b6:    1851        Q.      ADDS     r1,r2,r1
        0x000004b8:    688b        .h      LDR      r3,[r1,#8]
        0x000004ba:    2201        ."      MOVS     r2,#1
        0x000004bc:    4082        .@      LSLS     r2,r2,r0
        0x000004be:    4313        .C      ORRS     r3,r3,r2
        0x000004c0:    608b        .`      STR      r3,[r1,#8]
        0x000004c2:    6888        .h      LDR      r0,[r1,#8]
        0x000004c4:    4390        .C      BICS     r0,r0,r2
        0x000004c6:    6088        .`      STR      r0,[r1,#8]
        0x000004c8:    4770        pG      BX       lr
        0x000004ca:    0000        ..      MOVS     r0,r0
    i.SendChar_ToUART
    SendChar_ToUART
        0x000004cc:    4906        .I      LDR      r1,[pc,#24] ; [0x4e8] = 0x40050000
        0x000004ce:    698a        .i      LDR      r2,[r1,#0x18]
        0x000004d0:    0212        ..      LSLS     r2,r2,#8
        0x000004d2:    d4fc        ..      BMI      0x4ce ; SendChar_ToUART + 2
        0x000004d4:    280a        .(      CMP      r0,#0xa
        0x000004d6:    d104        ..      BNE      0x4e2 ; SendChar_ToUART + 22
        0x000004d8:    220d        ."      MOVS     r2,#0xd
        0x000004da:    600a        .`      STR      r2,[r1,#0]
        0x000004dc:    698a        .i      LDR      r2,[r1,#0x18]
        0x000004de:    0212        ..      LSLS     r2,r2,#8
        0x000004e0:    d4fc        ..      BMI      0x4dc ; SendChar_ToUART + 16
        0x000004e2:    6008        .`      STR      r0,[r1,#0]
        0x000004e4:    4770        pG      BX       lr
    $d
        0x000004e6:    0000        ..      DCW    0
        0x000004e8:    40050000    ...@    DCD    1074069504
    $t
    i.SystemCoreClockUpdate
    SystemCoreClockUpdate
        0x000004ec:    b538        8.      PUSH     {r3-r5,lr}
        0x000004ee:    a01d        ..      ADR      r0,{pc}+0x76 ; 0x564
        0x000004f0:    6800        .h      LDR      r0,[r0,#0]
        0x000004f2:    4c1d        .L      LDR      r4,[pc,#116] ; [0x568] = 0x50000200
        0x000004f4:    9000        ..      STR      r0,[sp,#0]
        0x000004f6:    6a21        !j      LDR      r1,[r4,#0x20]
        0x000004f8:    1320         .      ASRS     r0,r4,#12
        0x000004fa:    4201        .B      TST      r1,r0
        0x000004fc:    d001        ..      BEQ      0x502 ; SystemCoreClockUpdate + 22
        0x000004fe:    2000        .       MOVS     r0,#0
        0x00000500:    e016        ..      B        0x530 ; SystemCoreClockUpdate + 68
        0x00000502:    0308        ..      LSLS     r0,r1,#12
        0x00000504:    d501        ..      BPL      0x50a ; SystemCoreClockUpdate + 30
        0x00000506:    4819        .H      LDR      r0,[pc,#100] ; [0x56c] = 0x1518000
        0x00000508:    e000        ..      B        0x50c ; SystemCoreClockUpdate + 32
        0x0000050a:    4819        .H      LDR      r0,[pc,#100] ; [0x570] = 0xb71b00
        0x0000050c:    038a        ..      LSLS     r2,r1,#14
        0x0000050e:    d40f        ..      BMI      0x530 ; SystemCoreClockUpdate + 68
        0x00000510:    040a        ..      LSLS     r2,r1,#16
        0x00000512:    0f92        ..      LSRS     r2,r2,#30
        0x00000514:    466b        kF      MOV      r3,sp
        0x00000516:    5c9b        .\      LDRB     r3,[r3,r2]
        0x00000518:    05ca        ..      LSLS     r2,r1,#23
        0x0000051a:    0489        ..      LSLS     r1,r1,#18
        0x0000051c:    0dd2        ..      LSRS     r2,r2,#23
        0x0000051e:    0ec9        ..      LSRS     r1,r1,#27
        0x00000520:    1c89        ..      ADDS     r1,r1,#2
        0x00000522:    0880        ..      LSRS     r0,r0,#2
        0x00000524:    1c92        ..      ADDS     r2,r2,#2
        0x00000526:    4359        YC      MULS     r1,r3,r1
        0x00000528:    4350        PC      MULS     r0,r2,r0
        0x0000052a:    f7fffe09    ....    BL       __aeabi_uidiv ; 0x140
        0x0000052e:    0080        ..      LSLS     r0,r0,#2
        0x00000530:    4d10        .M      LDR      r5,[pc,#64] ; [0x574] = 0x20000000
        0x00000532:    60a8        .`      STR      r0,[r5,#8]
        0x00000534:    6921        !i      LDR      r1,[r4,#0x10]
        0x00000536:    0749        I.      LSLS     r1,r1,#29
        0x00000538:    0f49        I.      LSRS     r1,r1,#29
        0x0000053a:    2902        .)      CMP      r1,#2
        0x0000053c:    d003        ..      BEQ      0x546 ; SystemCoreClockUpdate + 90
        0x0000053e:    0088        ..      LSLS     r0,r1,#2
        0x00000540:    4629        )F      MOV      r1,r5
        0x00000542:    310c        .1      ADDS     r1,r1,#0xc
        0x00000544:    5808        .X      LDR      r0,[r1,r0]
        0x00000546:    69a1        .i      LDR      r1,[r4,#0x18]
        0x00000548:    0709        ..      LSLS     r1,r1,#28
        0x0000054a:    0f09        ..      LSRS     r1,r1,#28
        0x0000054c:    1c49        I.      ADDS     r1,r1,#1
        0x0000054e:    f7fffdf7    ....    BL       __aeabi_uidiv ; 0x140
        0x00000552:    4909        .I      LDR      r1,[pc,#36] ; [0x578] = 0xf4240
        0x00000554:    6028        (`      STR      r0,[r5,#0]
        0x00000556:    104a        J.      ASRS     r2,r1,#1
        0x00000558:    1880        ..      ADDS     r0,r0,r2
        0x0000055a:    f7fffdf1    ....    BL       __aeabi_uidiv ; 0x140
        0x0000055e:    6068        h`      STR      r0,[r5,#4]
        0x00000560:    bd38        8.      POP      {r3-r5,pc}
    $d
        0x00000562:    0000        ..      DCW    0
        0x00000564:    04020201    ....    DCD    67240449
        0x00000568:    50000200    ...P    DCD    1342177792
        0x0000056c:    01518000    ..Q.    DCD    22118400
        0x00000570:    00b71b00    ....    DCD    12000000
        0x00000574:    20000000    ...     DCD    536870912
        0x00000578:    000f4240    @B..    DCD    1000000
    $t
    i.SystemInit
    SystemInit
        0x0000057c:    4770        pG      BX       lr
        0x0000057e:    0000        ..      MOVS     r0,r0
    i.UART02_IRQHandler
    UART02_IRQHandler
        0x00000580:    b570        p.      PUSH     {r4-r6,lr}
        0x00000582:    4c0b        .L      LDR      r4,[pc,#44] ; [0x5b0] = 0x40050000
        0x00000584:    4d0b        .M      LDR      r5,[pc,#44] ; [0x5b4] = 0x40154000
        0x00000586:    e004        ..      B        0x592 ; UART02_IRQHandler + 18
        0x00000588:    6820         h      LDR      r0,[r4,#0]
        0x0000058a:    b2c1        ..      UXTB     r1,r0
        0x0000058c:    480a        .H      LDR      r0,[pc,#40] ; [0x5b8] = 0x20000090
        0x0000058e:    f000fb50    ..P.    BL       push ; 0xc32
        0x00000592:    69e0        .i      LDR      r0,[r4,#0x1c]
        0x00000594:    07c0        ..      LSLS     r0,r0,#31
        0x00000596:    d1f7        ..      BNE      0x588 ; UART02_IRQHandler + 8
        0x00000598:    e005        ..      B        0x5a6 ; UART02_IRQHandler + 38
        0x0000059a:    6828        (h      LDR      r0,[r5,#0]
        0x0000059c:    b2c1        ..      UXTB     r1,r0
        0x0000059e:    4806        .H      LDR      r0,[pc,#24] ; [0x5b8] = 0x20000090
        0x000005a0:    3044        D0      ADDS     r0,r0,#0x44
        0x000005a2:    f000fb46    ..F.    BL       push ; 0xc32
        0x000005a6:    69e8        .i      LDR      r0,[r5,#0x1c]
        0x000005a8:    07c0        ..      LSLS     r0,r0,#31
        0x000005aa:    d1f6        ..      BNE      0x59a ; UART02_IRQHandler + 26
        0x000005ac:    bd70        p.      POP      {r4-r6,pc}
    $d
        0x000005ae:    0000        ..      DCW    0
        0x000005b0:    40050000    ...@    DCD    1074069504
        0x000005b4:    40154000    .@.@    DCD    1075134464
        0x000005b8:    20000090    ...     DCD    536871056
    $t
    i.UART1_IRQHandler
    UART1_IRQHandler
        0x000005bc:    b510        ..      PUSH     {r4,lr}
        0x000005be:    4c05        .L      LDR      r4,[pc,#20] ; [0x5d4] = 0x40150000
        0x000005c0:    e004        ..      B        0x5cc ; UART1_IRQHandler + 16
        0x000005c2:    6820         h      LDR      r0,[r4,#0]
        0x000005c4:    b2c1        ..      UXTB     r1,r0
        0x000005c6:    4804        .H      LDR      r0,[pc,#16] ; [0x5d8] = 0x200000b2
        0x000005c8:    f000fb33    ..3.    BL       push ; 0xc32
        0x000005cc:    69e0        .i      LDR      r0,[r4,#0x1c]
        0x000005ce:    07c0        ..      LSLS     r0,r0,#31
        0x000005d0:    d1f7        ..      BNE      0x5c2 ; UART1_IRQHandler + 6
        0x000005d2:    bd10        ..      POP      {r4,pc}
    $d
        0x000005d4:    40150000    ...@    DCD    1075118080
        0x000005d8:    200000b2    ...     DCD    536871090
    $t
    i.UART_EnableInt
    UART_EnableInt
        0x000005dc:    b510        ..      PUSH     {r4,lr}
        0x000005de:    6842        Bh      LDR      r2,[r0,#4]
        0x000005e0:    430a        .C      ORRS     r2,r2,r1
        0x000005e2:    6042        B`      STR      r2,[r0,#4]
        0x000005e4:    490d        .I      LDR      r1,[pc,#52] ; [0x61c] = 0x40050000
        0x000005e6:    4288        .B      CMP      r0,r1
        0x000005e8:    d009        ..      BEQ      0x5fe ; UART_EnableInt + 34
        0x000005ea:    490d        .I      LDR      r1,[pc,#52] ; [0x620] = 0x40150000
        0x000005ec:    4288        .B      CMP      r0,r1
        0x000005ee:    d103        ..      BNE      0x5f8 ; UART_EnableInt + 28
        0x000005f0:    200d        .       MOVS     r0,#0xd
        0x000005f2:    f7fffefd    ....    BL       NVIC_EnableIRQ ; 0x3f0
        0x000005f6:    bd10        ..      POP      {r4,pc}
        0x000005f8:    490a        .I      LDR      r1,[pc,#40] ; [0x624] = 0x40154000
        0x000005fa:    4288        .B      CMP      r0,r1
        0x000005fc:    d101        ..      BNE      0x602 ; UART_EnableInt + 38
        0x000005fe:    200c        .       MOVS     r0,#0xc
        0x00000600:    e7f7        ..      B        0x5f2 ; UART_EnableInt + 22
        0x00000602:    4909        .I      LDR      r1,[pc,#36] ; [0x628] = 0x40054000
        0x00000604:    4288        .B      CMP      r0,r1
        0x00000606:    d101        ..      BNE      0x60c ; UART_EnableInt + 48
        0x00000608:    200f        .       MOVS     r0,#0xf
        0x0000060a:    e7f2        ..      B        0x5f2 ; UART_EnableInt + 22
        0x0000060c:    4907        .I      LDR      r1,[pc,#28] ; [0x62c] = 0x40058000
        0x0000060e:    4288        .B      CMP      r0,r1
        0x00000610:    d101        ..      BNE      0x616 ; UART_EnableInt + 58
        0x00000612:    2010        .       MOVS     r0,#0x10
        0x00000614:    e7ed        ..      B        0x5f2 ; UART_EnableInt + 22
        0x00000616:    2011        .       MOVS     r0,#0x11
        0x00000618:    e7eb        ..      B        0x5f2 ; UART_EnableInt + 22
    $d
        0x0000061a:    0000        ..      DCW    0
        0x0000061c:    40050000    ...@    DCD    1074069504
        0x00000620:    40150000    ...@    DCD    1075118080
        0x00000624:    40154000    .@.@    DCD    1075134464
        0x00000628:    40054000    .@.@    DCD    1074085888
        0x0000062c:    40058000    ...@    DCD    1074102272
    $t
    i.UART_Init
    UART_Init
        0x00000630:    b510        ..      PUSH     {r4,lr}
        0x00000632:    24e1        .$      MOVS     r4,#0xe1
        0x00000634:    0264        d.      LSLS     r4,r4,#9
        0x00000636:    2800        .(      CMP      r0,#0
        0x00000638:    d00b        ..      BEQ      0x652 ; UART_Init + 34
        0x0000063a:    2801        .(      CMP      r0,#1
        0x0000063c:    d010        ..      BEQ      0x660 ; UART_Init + 48
        0x0000063e:    2802        .(      CMP      r0,#2
        0x00000640:    d106        ..      BNE      0x650 ; UART_Init + 32
        0x00000642:    480b        .H      LDR      r0,[pc,#44] ; [0x670] = 0x4000012
        0x00000644:    f7ffff34    ..4.    BL       SYS_ResetModule ; 0x4b0
        0x00000648:    4621        !F      MOV      r1,r4
        0x0000064a:    480a        .H      LDR      r0,[pc,#40] ; [0x674] = 0x40154000
        0x0000064c:    f000f818    ....    BL       UART_Open ; 0x680
        0x00000650:    bd10        ..      POP      {r4,pc}
        0x00000652:    4807        .H      LDR      r0,[pc,#28] ; [0x670] = 0x4000012
        0x00000654:    1e80        ..      SUBS     r0,r0,#2
        0x00000656:    f7ffff2b    ..+.    BL       SYS_ResetModule ; 0x4b0
        0x0000065a:    4621        !F      MOV      r1,r4
        0x0000065c:    4806        .H      LDR      r0,[pc,#24] ; [0x678] = 0x40050000
        0x0000065e:    e7f5        ..      B        0x64c ; UART_Init + 28
        0x00000660:    4803        .H      LDR      r0,[pc,#12] ; [0x670] = 0x4000012
        0x00000662:    1e40        @.      SUBS     r0,r0,#1
        0x00000664:    f7ffff24    ..$.    BL       SYS_ResetModule ; 0x4b0
        0x00000668:    4621        !F      MOV      r1,r4
        0x0000066a:    4804        .H      LDR      r0,[pc,#16] ; [0x67c] = 0x40150000
        0x0000066c:    e7ee        ..      B        0x64c ; UART_Init + 28
    $d
        0x0000066e:    0000        ..      DCW    0
        0x00000670:    04000012    ....    DCD    67108882
        0x00000674:    40154000    .@.@    DCD    1075134464
        0x00000678:    40050000    ...@    DCD    1074069504
        0x0000067c:    40150000    ...@    DCD    1075118080
    $t
    i.UART_Open
    UART_Open
        0x00000680:    b5f0        ..      PUSH     {r4-r7,lr}
        0x00000682:    4604        .F      MOV      r4,r0
        0x00000684:    481c        .H      LDR      r0,[pc,#112] ; [0x6f8] = 0xd64
        0x00000686:    460d        .F      MOV      r5,r1
        0x00000688:    c80f        ..      LDM      r0,{r0-r3}
        0x0000068a:    b085        ..      SUB      sp,sp,#0x14
        0x0000068c:    466e        nF      MOV      r6,sp
        0x0000068e:    c60f        ..      STM      r6!,{r0-r3}
        0x00000690:    481a        .H      LDR      r0,[pc,#104] ; [0x6fc] = 0x50000200
        0x00000692:    6941        Ai      LDR      r1,[r0,#0x14]
        0x00000694:    6980        .i      LDR      r0,[r0,#0x18]
        0x00000696:    018a        ..      LSLS     r2,r1,#6
        0x00000698:    2103        .!      MOVS     r1,#3
        0x0000069a:    0f96        ..      LSRS     r6,r2,#30
        0x0000069c:    0500        ..      LSLS     r0,r0,#20
        0x0000069e:    0f07        ..      LSRS     r7,r0,#28
        0x000006a0:    2000        .       MOVS     r0,#0
        0x000006a2:    6320         c      STR      r0,[r4,#0x30]
        0x000006a4:    60e1        .`      STR      r1,[r4,#0xc]
        0x000006a6:    68a0        .h      LDR      r0,[r4,#8]
        0x000006a8:    4915        .I      LDR      r1,[pc,#84] ; [0x700] = 0xfff0ff0f
        0x000006aa:    4008        .@      ANDS     r0,r0,r1
        0x000006ac:    60a0        .`      STR      r0,[r4,#8]
        0x000006ae:    2e01        ..      CMP      r6,#1
        0x000006b0:    d102        ..      BNE      0x6b8 ; UART_Open + 56
        0x000006b2:    f7fffdf1    ....    BL       CLK_GetPLLClockFreq ; 0x298
        0x000006b6:    9001        ..      STR      r0,[sp,#4]
        0x000006b8:    2d00        .-      CMP      r5,#0
        0x000006ba:    d01b        ..      BEQ      0x6f4 ; UART_Open + 116
        0x000006bc:    00b1        ..      LSLS     r1,r6,#2
        0x000006be:    4668        hF      MOV      r0,sp
        0x000006c0:    5840        @X      LDR      r0,[r0,r1]
        0x000006c2:    1c79        y.      ADDS     r1,r7,#1
        0x000006c4:    f7fffd3c    ..<.    BL       __aeabi_uidiv ; 0x140
        0x000006c8:    4606        .F      MOV      r6,r0
        0x000006ca:    0869        i.      LSRS     r1,r5,#1
        0x000006cc:    1840        @.      ADDS     r0,r0,r1
        0x000006ce:    4629        )F      MOV      r1,r5
        0x000006d0:    f7fffd36    ..6.    BL       __aeabi_uidiv ; 0x140
        0x000006d4:    490b        .I      LDR      r1,[pc,#44] ; [0x704] = 0xffff
        0x000006d6:    1e80        ..      SUBS     r0,r0,#2
        0x000006d8:    4288        .B      CMP      r0,r1
        0x000006da:    d907        ..      BLS      0x6ec ; UART_Open + 108
        0x000006dc:    00e9        ..      LSLS     r1,r5,#3
        0x000006de:    1870        p.      ADDS     r0,r6,r1
        0x000006e0:    4629        )F      MOV      r1,r5
        0x000006e2:    f7fffd2d    ..-.    BL       __aeabi_uidiv ; 0x140
        0x000006e6:    0900        ..      LSRS     r0,r0,#4
        0x000006e8:    1e80        ..      SUBS     r0,r0,#2
        0x000006ea:    e002        ..      B        0x6f2 ; UART_Open + 114
        0x000006ec:    2103        .!      MOVS     r1,#3
        0x000006ee:    0709        ..      LSLS     r1,r1,#28
        0x000006f0:    4308        .C      ORRS     r0,r0,r1
        0x000006f2:    6260        `b      STR      r0,[r4,#0x24]
        0x000006f4:    b005        ..      ADD      sp,sp,#0x14
        0x000006f6:    bdf0        ..      POP      {r4-r7,pc}
    $d
        0x000006f8:    00000d64    d...    DCD    3428
        0x000006fc:    50000200    ...P    DCD    1342177792
        0x00000700:    fff0ff0f    ....    DCD    4293984015
        0x00000704:    0000ffff    ....    DCD    65535
    $t
    i.UART_Write
    UART_Write
        0x00000708:    b570        p.      PUSH     {r4-r6,lr}
        0x0000070a:    4604        .F      MOV      r4,r0
        0x0000070c:    2000        .       MOVS     r0,#0
        0x0000070e:    2501        .%      MOVS     r5,#1
        0x00000710:    07ad        ..      LSLS     r5,r5,#30
        0x00000712:    e00c        ..      B        0x72e ; UART_Write + 38
        0x00000714:    2300        .#      MOVS     r3,#0
        0x00000716:    e004        ..      B        0x722 ; UART_Write + 26
        0x00000718:    1c5b        [.      ADDS     r3,r3,#1
        0x0000071a:    42ab        .B      CMP      r3,r5
        0x0000071c:    d301        ..      BCC      0x722 ; UART_Write + 26
        0x0000071e:    2000        .       MOVS     r0,#0
        0x00000720:    bd70        p.      POP      {r4-r6,pc}
        0x00000722:    69a6        .i      LDR      r6,[r4,#0x18]
        0x00000724:    00f6        ..      LSLS     r6,r6,#3
        0x00000726:    d5f7        ..      BPL      0x718 ; UART_Write + 16
        0x00000728:    5c0b        .\      LDRB     r3,[r1,r0]
        0x0000072a:    6023        #`      STR      r3,[r4,#0]
        0x0000072c:    1c40        @.      ADDS     r0,r0,#1
        0x0000072e:    4290        .B      CMP      r0,r2
        0x00000730:    d1f0        ..      BNE      0x714 ; UART_Write + 12
        0x00000732:    bd70        p.      POP      {r4-r6,pc}
    i.__0printf$5
    __0printf$5
    __1printf$5
    __2printf
        0x00000734:    b40f        ..      PUSH     {r0-r3}
        0x00000736:    b510        ..      PUSH     {r4,lr}
        0x00000738:    a903        ..      ADD      r1,sp,#0xc
        0x0000073a:    4b04        .K      LDR      r3,[pc,#16] ; [0x74c] = 0xaa9
        0x0000073c:    4a04        .J      LDR      r2,[pc,#16] ; [0x750] = 0x2000004c
        0x0000073e:    9802        ..      LDR      r0,[sp,#8]
        0x00000740:    f000f818    ....    BL       _printf_core ; 0x774
        0x00000744:    bc10        ..      POP      {r4}
        0x00000746:    bc08        ..      POP      {r3}
        0x00000748:    b004        ..      ADD      sp,sp,#0x10
        0x0000074a:    4718        .G      BX       r3
    $d
        0x0000074c:    00000aa9    ....    DCD    2729
        0x00000750:    2000004c    L..     DCD    536870988
    $t
    i.__scatterload_copy
    __scatterload_copy
        0x00000754:    e002        ..      B        0x75c ; __scatterload_copy + 8
        0x00000756:    c808        ..      LDM      r0!,{r3}
        0x00000758:    1f12        ..      SUBS     r2,r2,#4
        0x0000075a:    c108        ..      STM      r1!,{r3}
        0x0000075c:    2a00        .*      CMP      r2,#0
        0x0000075e:    d1fa        ..      BNE      0x756 ; __scatterload_copy + 2
        0x00000760:    4770        pG      BX       lr
    i.__scatterload_null
    __scatterload_null
        0x00000762:    4770        pG      BX       lr
    i.__scatterload_zeroinit
    __scatterload_zeroinit
        0x00000764:    2000        .       MOVS     r0,#0
        0x00000766:    e001        ..      B        0x76c ; __scatterload_zeroinit + 8
        0x00000768:    c101        ..      STM      r1!,{r0}
        0x0000076a:    1f12        ..      SUBS     r2,r2,#4
        0x0000076c:    2a00        .*      CMP      r2,#0
        0x0000076e:    d1fb        ..      BNE      0x768 ; __scatterload_zeroinit + 4
        0x00000770:    4770        pG      BX       lr
        0x00000772:    0000        ..      MOVS     r0,r0
    i._printf_core
    _printf_core
        0x00000774:    b5ff        ..      PUSH     {r0-r7,lr}
        0x00000776:    b08f        ..      SUB      sp,sp,#0x3c
        0x00000778:    460f        .F      MOV      r7,r1
        0x0000077a:    4604        .F      MOV      r4,r0
        0x0000077c:    2600        .&      MOVS     r6,#0
        0x0000077e:    e006        ..      B        0x78e ; _printf_core + 26
        0x00000780:    2825        %(      CMP      r0,#0x25
        0x00000782:    d00a        ..      BEQ      0x79a ; _printf_core + 38
        0x00000784:    9a12        ..      LDR      r2,[sp,#0x48]
        0x00000786:    9911        ..      LDR      r1,[sp,#0x44]
        0x00000788:    4790        .G      BLX      r2
        0x0000078a:    1c64        d.      ADDS     r4,r4,#1
        0x0000078c:    1c76        v.      ADDS     r6,r6,#1
        0x0000078e:    7820         x      LDRB     r0,[r4,#0]
        0x00000790:    2800        .(      CMP      r0,#0
        0x00000792:    d1f5        ..      BNE      0x780 ; _printf_core + 12
        0x00000794:    4630        0F      MOV      r0,r6
        0x00000796:    b013        ..      ADD      sp,sp,#0x4c
        0x00000798:    bdf0        ..      POP      {r4-r7,pc}
        0x0000079a:    2500        .%      MOVS     r5,#0
        0x0000079c:    2101        .!      MOVS     r1,#1
        0x0000079e:    4a9f        .J      LDR      r2,[pc,#636] ; [0xa1c] = 0x12809
        0x000007a0:    9500        ..      STR      r5,[sp,#0]
        0x000007a2:    e000        ..      B        0x7a6 ; _printf_core + 50
        0x000007a4:    4305        .C      ORRS     r5,r5,r0
        0x000007a6:    1c64        d.      ADDS     r4,r4,#1
        0x000007a8:    7823        #x      LDRB     r3,[r4,#0]
        0x000007aa:    4608        .F      MOV      r0,r1
        0x000007ac:    3b20         ;      SUBS     r3,r3,#0x20
        0x000007ae:    4098        .@      LSLS     r0,r0,r3
        0x000007b0:    4210        .B      TST      r0,r2
        0x000007b2:    d1f7        ..      BNE      0x7a4 ; _printf_core + 48
        0x000007b4:    7820         x      LDRB     r0,[r4,#0]
        0x000007b6:    282e        .(      CMP      r0,#0x2e
        0x000007b8:    d115        ..      BNE      0x7e6 ; _printf_core + 114
        0x000007ba:    2004        .       MOVS     r0,#4
        0x000007bc:    4305        .C      ORRS     r5,r5,r0
        0x000007be:    7860        `x      LDRB     r0,[r4,#1]
        0x000007c0:    1c64        d.      ADDS     r4,r4,#1
        0x000007c2:    282a        *(      CMP      r0,#0x2a
        0x000007c4:    d10a        ..      BNE      0x7dc ; _printf_core + 104
        0x000007c6:    cf01        ..      LDM      r7!,{r0}
        0x000007c8:    1c64        d.      ADDS     r4,r4,#1
        0x000007ca:    9000        ..      STR      r0,[sp,#0]
        0x000007cc:    e00b        ..      B        0x7e6 ; _printf_core + 114
        0x000007ce:    9900        ..      LDR      r1,[sp,#0]
        0x000007d0:    220a        ."      MOVS     r2,#0xa
        0x000007d2:    4351        QC      MULS     r1,r2,r1
        0x000007d4:    3930        09      SUBS     r1,r1,#0x30
        0x000007d6:    1840        @.      ADDS     r0,r0,r1
        0x000007d8:    1c64        d.      ADDS     r4,r4,#1
        0x000007da:    9000        ..      STR      r0,[sp,#0]
        0x000007dc:    7820         x      LDRB     r0,[r4,#0]
        0x000007de:    4601        .F      MOV      r1,r0
        0x000007e0:    3930        09      SUBS     r1,r1,#0x30
        0x000007e2:    2909        .)      CMP      r1,#9
        0x000007e4:    d9f3        ..      BLS      0x7ce ; _printf_core + 90
        0x000007e6:    7820         x      LDRB     r0,[r4,#0]
        0x000007e8:    286c        l(      CMP      r0,#0x6c
        0x000007ea:    d00e        ..      BEQ      0x80a ; _printf_core + 150
        0x000007ec:    dc04        ..      BGT      0x7f8 ; _printf_core + 132
        0x000007ee:    284c        L(      CMP      r0,#0x4c
        0x000007f0:    d013        ..      BEQ      0x81a ; _printf_core + 166
        0x000007f2:    286a        j(      CMP      r0,#0x6a
        0x000007f4:    d112        ..      BNE      0x81c ; _printf_core + 168
        0x000007f6:    e004        ..      B        0x802 ; _printf_core + 142
        0x000007f8:    2874        t(      CMP      r0,#0x74
        0x000007fa:    d00e        ..      BEQ      0x81a ; _printf_core + 166
        0x000007fc:    287a        z(      CMP      r0,#0x7a
        0x000007fe:    d10d        ..      BNE      0x81c ; _printf_core + 168
        0x00000800:    e00b        ..      B        0x81a ; _printf_core + 166
        0x00000802:    2001        .       MOVS     r0,#1
        0x00000804:    0540        @.      LSLS     r0,r0,#21
        0x00000806:    4305        .C      ORRS     r5,r5,r0
        0x00000808:    e007        ..      B        0x81a ; _printf_core + 166
        0x0000080a:    2101        .!      MOVS     r1,#1
        0x0000080c:    0509        ..      LSLS     r1,r1,#20
        0x0000080e:    7862        bx      LDRB     r2,[r4,#1]
        0x00000810:    430d        .C      ORRS     r5,r5,r1
        0x00000812:    4282        .B      CMP      r2,r0
        0x00000814:    d101        ..      BNE      0x81a ; _printf_core + 166
        0x00000816:    186d        m.      ADDS     r5,r5,r1
        0x00000818:    1c64        d.      ADDS     r4,r4,#1
        0x0000081a:    1c64        d.      ADDS     r4,r4,#1
        0x0000081c:    7820         x      LDRB     r0,[r4,#0]
        0x0000081e:    2869        i(      CMP      r0,#0x69
        0x00000820:    d049        I.      BEQ      0x8b6 ; _printf_core + 322
        0x00000822:    dc08        ..      BGT      0x836 ; _printf_core + 194
        0x00000824:    2800        .(      CMP      r0,#0
        0x00000826:    d0b5        ..      BEQ      0x794 ; _printf_core + 32
        0x00000828:    2858        X(      CMP      r0,#0x58
        0x0000082a:    d06c        l.      BEQ      0x906 ; _printf_core + 402
        0x0000082c:    2863        c(      CMP      r0,#0x63
        0x0000082e:    d00f        ..      BEQ      0x850 ; _printf_core + 220
        0x00000830:    2864        d(      CMP      r0,#0x64
        0x00000832:    d108        ..      BNE      0x846 ; _printf_core + 210
        0x00000834:    e03f        ?.      B        0x8b6 ; _printf_core + 322
        0x00000836:    2870        p(      CMP      r0,#0x70
        0x00000838:    d06a        j.      BEQ      0x910 ; _printf_core + 412
        0x0000083a:    2873        s(      CMP      r0,#0x73
        0x0000083c:    d011        ..      BEQ      0x862 ; _printf_core + 238
        0x0000083e:    2875        u(      CMP      r0,#0x75
        0x00000840:    d05f        _.      BEQ      0x902 ; _printf_core + 398
        0x00000842:    2878        x(      CMP      r0,#0x78
        0x00000844:    d05f        _.      BEQ      0x906 ; _printf_core + 402
        0x00000846:    9a12        ..      LDR      r2,[sp,#0x48]
        0x00000848:    9911        ..      LDR      r1,[sp,#0x44]
        0x0000084a:    4790        .G      BLX      r2
        0x0000084c:    1c76        v.      ADDS     r6,r6,#1
        0x0000084e:    e0e3        ..      B        0xa18 ; _printf_core + 676
        0x00000850:    7838        8x      LDRB     r0,[r7,#0]
        0x00000852:    4669        iF      MOV      r1,sp
        0x00000854:    7208        .r      STRB     r0,[r1,#8]
        0x00000856:    2000        .       MOVS     r0,#0
        0x00000858:    7248        Hr      STRB     r0,[r1,#9]
        0x0000085a:    a802        ..      ADD      r0,sp,#8
        0x0000085c:    9001        ..      STR      r0,[sp,#4]
        0x0000085e:    2001        .       MOVS     r0,#1
        0x00000860:    e003        ..      B        0x86a ; _printf_core + 246
        0x00000862:    6838        8h      LDR      r0,[r7,#0]
        0x00000864:    9001        ..      STR      r0,[sp,#4]
        0x00000866:    2000        .       MOVS     r0,#0
        0x00000868:    43c0        .C      MVNS     r0,r0
        0x0000086a:    1d3f        ?.      ADDS     r7,r7,#4
        0x0000086c:    0769        i.      LSLS     r1,r5,#29
        0x0000086e:    d50c        ..      BPL      0x88a ; _printf_core + 278
        0x00000870:    2500        .%      MOVS     r5,#0
        0x00000872:    e000        ..      B        0x876 ; _printf_core + 258
        0x00000874:    1c6d        m.      ADDS     r5,r5,#1
        0x00000876:    9900        ..      LDR      r1,[sp,#0]
        0x00000878:    428d        .B      CMP      r5,r1
        0x0000087a:    da0f        ..      BGE      0x89c ; _printf_core + 296
        0x0000087c:    4285        .B      CMP      r5,r0
        0x0000087e:    dbf9        ..      BLT      0x874 ; _printf_core + 256
        0x00000880:    9901        ..      LDR      r1,[sp,#4]
        0x00000882:    5d49        I]      LDRB     r1,[r1,r5]
        0x00000884:    2900        .)      CMP      r1,#0
        0x00000886:    d1f5        ..      BNE      0x874 ; _printf_core + 256
        0x00000888:    e008        ..      B        0x89c ; _printf_core + 296
        0x0000088a:    2500        .%      MOVS     r5,#0
        0x0000088c:    e000        ..      B        0x890 ; _printf_core + 284
        0x0000088e:    1c6d        m.      ADDS     r5,r5,#1
        0x00000890:    4285        .B      CMP      r5,r0
        0x00000892:    dbfc        ..      BLT      0x88e ; _printf_core + 282
        0x00000894:    9901        ..      LDR      r1,[sp,#4]
        0x00000896:    5d49        I]      LDRB     r1,[r1,r5]
        0x00000898:    2900        .)      CMP      r1,#0
        0x0000089a:    d1f8        ..      BNE      0x88e ; _printf_core + 282
        0x0000089c:    1976        v.      ADDS     r6,r6,r5
        0x0000089e:    e007        ..      B        0x8b0 ; _printf_core + 316
        0x000008a0:    9801        ..      LDR      r0,[sp,#4]
        0x000008a2:    9901        ..      LDR      r1,[sp,#4]
        0x000008a4:    7800        .x      LDRB     r0,[r0,#0]
        0x000008a6:    1c49        I.      ADDS     r1,r1,#1
        0x000008a8:    9101        ..      STR      r1,[sp,#4]
        0x000008aa:    9a12        ..      LDR      r2,[sp,#0x48]
        0x000008ac:    9911        ..      LDR      r1,[sp,#0x44]
        0x000008ae:    4790        .G      BLX      r2
        0x000008b0:    1e6d        m.      SUBS     r5,r5,#1
        0x000008b2:    d2f5        ..      BCS      0x8a0 ; _printf_core + 300
        0x000008b4:    e0b0        ..      B        0xa18 ; _printf_core + 676
        0x000008b6:    200a        .       MOVS     r0,#0xa
        0x000008b8:    9002        ..      STR      r0,[sp,#8]
        0x000008ba:    2100        .!      MOVS     r1,#0
        0x000008bc:    0268        h.      LSLS     r0,r5,#9
        0x000008be:    0f40        @.      LSRS     r0,r0,#29
        0x000008c0:    9103        ..      STR      r1,[sp,#0xc]
        0x000008c2:    2802        .(      CMP      r0,#2
        0x000008c4:    d00c        ..      BEQ      0x8e0 ; _printf_core + 364
        0x000008c6:    cf01        ..      LDM      r7!,{r0}
        0x000008c8:    17c1        ..      ASRS     r1,r0,#31
        0x000008ca:    4684        .F      MOV      r12,r0
        0x000008cc:    2900        .)      CMP      r1,#0
        0x000008ce:    da0d        ..      BGE      0x8ec ; _printf_core + 376
        0x000008d0:    4660        `F      MOV      r0,r12
        0x000008d2:    460a        .F      MOV      r2,r1
        0x000008d4:    4240        @B      RSBS     r0,r0,#0
        0x000008d6:    2100        .!      MOVS     r1,#0
        0x000008d8:    4191        .A      SBCS     r1,r1,r2
        0x000008da:    4684        .F      MOV      r12,r0
        0x000008dc:    202d        -       MOVS     r0,#0x2d
        0x000008de:    e008        ..      B        0x8f2 ; _printf_core + 382
        0x000008e0:    1dff        ..      ADDS     r7,r7,#7
        0x000008e2:    08ff        ..      LSRS     r7,r7,#3
        0x000008e4:    00ff        ..      LSLS     r7,r7,#3
        0x000008e6:    cf03        ..      LDM      r7!,{r0,r1}
        0x000008e8:    4684        .F      MOV      r12,r0
        0x000008ea:    e7ef        ..      B        0x8cc ; _printf_core + 344
        0x000008ec:    0528        (.      LSLS     r0,r5,#20
        0x000008ee:    d504        ..      BPL      0x8fa ; _printf_core + 390
        0x000008f0:    202b        +       MOVS     r0,#0x2b
        0x000008f2:    466a        jF      MOV      r2,sp
        0x000008f4:    7410        .t      STRB     r0,[r2,#0x10]
        0x000008f6:    2001        .       MOVS     r0,#1
        0x000008f8:    e03d        =.      B        0x976 ; _printf_core + 514
        0x000008fa:    07e8        ..      LSLS     r0,r5,#31
        0x000008fc:    d03b        ;.      BEQ      0x976 ; _printf_core + 514
        0x000008fe:    2020                MOVS     r0,#0x20
        0x00000900:    e7f7        ..      B        0x8f2 ; _printf_core + 382
        0x00000902:    200a        .       MOVS     r0,#0xa
        0x00000904:    e000        ..      B        0x908 ; _printf_core + 404
        0x00000906:    2010        .       MOVS     r0,#0x10
        0x00000908:    2100        .!      MOVS     r1,#0
        0x0000090a:    9103        ..      STR      r1,[sp,#0xc]
        0x0000090c:    9002        ..      STR      r0,[sp,#8]
        0x0000090e:    e007        ..      B        0x920 ; _printf_core + 428
        0x00000910:    2010        .       MOVS     r0,#0x10
        0x00000912:    9002        ..      STR      r0,[sp,#8]
        0x00000914:    2100        .!      MOVS     r1,#0
        0x00000916:    2004        .       MOVS     r0,#4
        0x00000918:    4305        .C      ORRS     r5,r5,r0
        0x0000091a:    2008        .       MOVS     r0,#8
        0x0000091c:    9103        ..      STR      r1,[sp,#0xc]
        0x0000091e:    9000        ..      STR      r0,[sp,#0]
        0x00000920:    0268        h.      LSLS     r0,r5,#9
        0x00000922:    0f40        @.      LSRS     r0,r0,#29
        0x00000924:    2802        .(      CMP      r0,#2
        0x00000926:    d011        ..      BEQ      0x94c ; _printf_core + 472
        0x00000928:    cf01        ..      LDM      r7!,{r0}
        0x0000092a:    2100        .!      MOVS     r1,#0
        0x0000092c:    4684        .F      MOV      r12,r0
        0x0000092e:    2000        .       MOVS     r0,#0
        0x00000930:    900d        ..      STR      r0,[sp,#0x34]
        0x00000932:    0728        (.      LSLS     r0,r5,#28
        0x00000934:    d520         .      BPL      0x978 ; _printf_core + 516
        0x00000936:    7820         x      LDRB     r0,[r4,#0]
        0x00000938:    4686        .F      MOV      lr,r0
        0x0000093a:    2870        p(      CMP      r0,#0x70
        0x0000093c:    d00c        ..      BEQ      0x958 ; _printf_core + 484
        0x0000093e:    9a02        ..      LDR      r2,[sp,#8]
        0x00000940:    2010        .       MOVS     r0,#0x10
        0x00000942:    9b03        ..      LDR      r3,[sp,#0xc]
        0x00000944:    4042        B@      EORS     r2,r2,r0
        0x00000946:    431a        .C      ORRS     r2,r2,r3
        0x00000948:    d00c        ..      BEQ      0x964 ; _printf_core + 496
        0x0000094a:    e015        ..      B        0x978 ; _printf_core + 516
        0x0000094c:    1dff        ..      ADDS     r7,r7,#7
        0x0000094e:    08ff        ..      LSRS     r7,r7,#3
        0x00000950:    00ff        ..      LSLS     r7,r7,#3
        0x00000952:    cf03        ..      LDM      r7!,{r0,r1}
        0x00000954:    4684        .F      MOV      r12,r0
        0x00000956:    e7ea        ..      B        0x92e ; _printf_core + 442
        0x00000958:    2040        @       MOVS     r0,#0x40
        0x0000095a:    466a        jF      MOV      r2,sp
        0x0000095c:    7410        .t      STRB     r0,[r2,#0x10]
        0x0000095e:    2001        .       MOVS     r0,#1
        0x00000960:    900d        ..      STR      r0,[sp,#0x34]
        0x00000962:    e00c        ..      B        0x97e ; _printf_core + 522
        0x00000964:    4660        `F      MOV      r0,r12
        0x00000966:    4308        .C      ORRS     r0,r0,r1
        0x00000968:    d006        ..      BEQ      0x978 ; _printf_core + 516
        0x0000096a:    2030        0       MOVS     r0,#0x30
        0x0000096c:    466a        jF      MOV      r2,sp
        0x0000096e:    7410        .t      STRB     r0,[r2,#0x10]
        0x00000970:    4670        pF      MOV      r0,lr
        0x00000972:    7450        Pt      STRB     r0,[r2,#0x11]
        0x00000974:    2002        .       MOVS     r0,#2
        0x00000976:    900d        ..      STR      r0,[sp,#0x34]
        0x00000978:    7820         x      LDRB     r0,[r4,#0]
        0x0000097a:    2858        X(      CMP      r0,#0x58
        0x0000097c:    d004        ..      BEQ      0x988 ; _printf_core + 532
        0x0000097e:    a028        (.      ADR      r0,{pc}+0xa2 ; 0xa20
        0x00000980:    9001        ..      STR      r0,[sp,#4]
        0x00000982:    a80d        ..      ADD      r0,sp,#0x34
        0x00000984:    900e        ..      STR      r0,[sp,#0x38]
        0x00000986:    e00d        ..      B        0x9a4 ; _printf_core + 560
        0x00000988:    a02a        *.      ADR      r0,{pc}+0xac ; 0xa34
        0x0000098a:    e7f9        ..      B        0x980 ; _printf_core + 524
        0x0000098c:    4660        `F      MOV      r0,r12
        0x0000098e:    9b03        ..      LDR      r3,[sp,#0xc]
        0x00000990:    9a02        ..      LDR      r2,[sp,#8]
        0x00000992:    f7fffbfd    ....    BL       __aeabi_uldivmod ; 0x190
        0x00000996:    9b01        ..      LDR      r3,[sp,#4]
        0x00000998:    4684        .F      MOV      r12,r0
        0x0000099a:    5c9b        .\      LDRB     r3,[r3,r2]
        0x0000099c:    9a0e        ..      LDR      r2,[sp,#0x38]
        0x0000099e:    1e52        R.      SUBS     r2,r2,#1
        0x000009a0:    920e        ..      STR      r2,[sp,#0x38]
        0x000009a2:    7013        .p      STRB     r3,[r2,#0]
        0x000009a4:    4660        `F      MOV      r0,r12
        0x000009a6:    4308        .C      ORRS     r0,r0,r1
        0x000009a8:    d1f0        ..      BNE      0x98c ; _printf_core + 536
        0x000009aa:    980e        ..      LDR      r0,[sp,#0x38]
        0x000009ac:    a905        ..      ADD      r1,sp,#0x14
        0x000009ae:    1a08        ..      SUBS     r0,r1,r0
        0x000009b0:    3020         0      ADDS     r0,r0,#0x20
        0x000009b2:    9001        ..      STR      r0,[sp,#4]
        0x000009b4:    0768        h.      LSLS     r0,r5,#29
        0x000009b6:    d401        ..      BMI      0x9bc ; _printf_core + 584
        0x000009b8:    2001        .       MOVS     r0,#1
        0x000009ba:    9000        ..      STR      r0,[sp,#0]
        0x000009bc:    9900        ..      LDR      r1,[sp,#0]
        0x000009be:    9801        ..      LDR      r0,[sp,#4]
        0x000009c0:    4281        .B      CMP      r1,r0
        0x000009c2:    dd01        ..      BLE      0x9c8 ; _printf_core + 596
        0x000009c4:    1a08        ..      SUBS     r0,r1,r0
        0x000009c6:    e000        ..      B        0x9ca ; _printf_core + 598
        0x000009c8:    2000        .       MOVS     r0,#0
        0x000009ca:    2500        .%      MOVS     r5,#0
        0x000009cc:    9000        ..      STR      r0,[sp,#0]
        0x000009ce:    e006        ..      B        0x9de ; _printf_core + 618
        0x000009d0:    a804        ..      ADD      r0,sp,#0x10
        0x000009d2:    9a12        ..      LDR      r2,[sp,#0x48]
        0x000009d4:    5d40        @]      LDRB     r0,[r0,r5]
        0x000009d6:    9911        ..      LDR      r1,[sp,#0x44]
        0x000009d8:    4790        .G      BLX      r2
        0x000009da:    1c6d        m.      ADDS     r5,r5,#1
        0x000009dc:    1c76        v.      ADDS     r6,r6,#1
        0x000009de:    980d        ..      LDR      r0,[sp,#0x34]
        0x000009e0:    4285        .B      CMP      r5,r0
        0x000009e2:    dbf5        ..      BLT      0x9d0 ; _printf_core + 604
        0x000009e4:    e004        ..      B        0x9f0 ; _printf_core + 636
        0x000009e6:    9a12        ..      LDR      r2,[sp,#0x48]
        0x000009e8:    2030        0       MOVS     r0,#0x30
        0x000009ea:    9911        ..      LDR      r1,[sp,#0x44]
        0x000009ec:    4790        .G      BLX      r2
        0x000009ee:    1c76        v.      ADDS     r6,r6,#1
        0x000009f0:    9900        ..      LDR      r1,[sp,#0]
        0x000009f2:    1e48        H.      SUBS     r0,r1,#1
        0x000009f4:    9000        ..      STR      r0,[sp,#0]
        0x000009f6:    2900        .)      CMP      r1,#0
        0x000009f8:    dcf5        ..      BGT      0x9e6 ; _printf_core + 626
        0x000009fa:    e008        ..      B        0xa0e ; _printf_core + 666
        0x000009fc:    980e        ..      LDR      r0,[sp,#0x38]
        0x000009fe:    990e        ..      LDR      r1,[sp,#0x38]
        0x00000a00:    7800        .x      LDRB     r0,[r0,#0]
        0x00000a02:    1c49        I.      ADDS     r1,r1,#1
        0x00000a04:    910e        ..      STR      r1,[sp,#0x38]
        0x00000a06:    9a12        ..      LDR      r2,[sp,#0x48]
        0x00000a08:    9911        ..      LDR      r1,[sp,#0x44]
        0x00000a0a:    4790        .G      BLX      r2
        0x00000a0c:    1c76        v.      ADDS     r6,r6,#1
        0x00000a0e:    9901        ..      LDR      r1,[sp,#4]
        0x00000a10:    1e48        H.      SUBS     r0,r1,#1
        0x00000a12:    9001        ..      STR      r0,[sp,#4]
        0x00000a14:    2900        .)      CMP      r1,#0
        0x00000a16:    dcf1        ..      BGT      0x9fc ; _printf_core + 648
        0x00000a18:    1c64        d.      ADDS     r4,r4,#1
        0x00000a1a:    e6b8        ..      B        0x78e ; _printf_core + 26
    $d
        0x00000a1c:    00012809    .(..    DCD    75785
        0x00000a20:    33323130    0123    DCD    858927408
        0x00000a24:    37363534    4567    DCD    926299444
        0x00000a28:    62613938    89ab    DCD    1650538808
        0x00000a2c:    66656463    cdef    DCD    1717920867
        0x00000a30:    00000000    ....    DCD    0
        0x00000a34:    33323130    0123    DCD    858927408
        0x00000a38:    37363534    4567    DCD    926299444
        0x00000a3c:    42413938    89AB    DCD    1111570744
        0x00000a40:    46454443    CDEF    DCD    1178944579
        0x00000a44:    00000000    ....    DCD    0
    $t
    i.check_uart_buffer
    check_uart_buffer
        0x00000a48:    b5f8        ..      PUSH     {r3-r7,lr}
        0x00000a4a:    461f        .F      MOV      r7,r3
        0x00000a4c:    460c        .F      MOV      r4,r1
        0x00000a4e:    4605        .F      MOV      r5,r0
        0x00000a50:    f000f839    ..9.    BL       isEmpty ; 0xac6
        0x00000a54:    2800        .(      CMP      r0,#0
        0x00000a56:    d11b        ..      BNE      0xa90 ; check_uart_buffer + 72
        0x00000a58:    4628        (F      MOV      r0,r5
        0x00000a5a:    f000f8dd    ....    BL       pop ; 0xc18
        0x00000a5e:    4d0d        .M      LDR      r5,[pc,#52] ; [0xa94] = 0x2000002c
        0x00000a60:    7829        )x      LDRB     r1,[r5,#0]
        0x00000a62:    5460        `T      STRB     r0,[r4,r1]
        0x00000a64:    1c49        I.      ADDS     r1,r1,#1
        0x00000a66:    b2c8        ..      UXTB     r0,r1
        0x00000a68:    7028        (p      STRB     r0,[r5,#0]
        0x00000a6a:    2801        .(      CMP      r0,#1
        0x00000a6c:    d910        ..      BLS      0xa90 ; check_uart_buffer + 72
        0x00000a6e:    2600        .&      MOVS     r6,#0
        0x00000a70:    b2c0        ..      UXTB     r0,r0
        0x00000a72:    5426        &T      STRB     r6,[r4,r0]
        0x00000a74:    1e40        @.      SUBS     r0,r0,#1
        0x00000a76:    b2c0        ..      UXTB     r0,r0
        0x00000a78:    7028        (p      STRB     r0,[r5,#0]
        0x00000a7a:    2801        .(      CMP      r0,#1
        0x00000a7c:    d1f8        ..      BNE      0xa70 ; check_uart_buffer + 40
        0x00000a7e:    7860        `x      LDRB     r0,[r4,#1]
        0x00000a80:    0201        ..      LSLS     r1,r0,#8
        0x00000a82:    7820         x      LDRB     r0,[r4,#0]
        0x00000a84:    4301        .C      ORRS     r1,r1,r0
        0x00000a86:    80b9        ..      STRH     r1,[r7,#4]
        0x00000a88:    a003        ..      ADR      r0,{pc}+0x10 ; 0xa98
        0x00000a8a:    f7fffe53    ..S.    BL       __0printf$5 ; 0x734
        0x00000a8e:    702e        .p      STRB     r6,[r5,#0]
        0x00000a90:    bdf8        ..      POP      {r3-r7,pc}
    $d
        0x00000a92:    0000        ..      DCW    0
        0x00000a94:    2000002c    ,..     DCD    536870956
        0x00000a98:    5f64656c    led_    DCD    1600415084
        0x00000a9c:    61746164    data    DCD    1635017060
        0x00000aa0:    25203a20     : %    DCD    622869024
        0x00000aa4:    000a2078    x ..    DCD    663672
    $t
    i.fputc
    fputc
        0x00000aa8:    b500        ..      PUSH     {lr}
        0x00000aaa:    4603        .F      MOV      r3,r0
        0x00000aac:    f7fffd0e    ....    BL       SendChar_ToUART ; 0x4cc
        0x00000ab0:    4618        .F      MOV      r0,r3
        0x00000ab2:    bd00        ..      POP      {pc}
    i.init_q
    init_q
        0x00000ab4:    b510        ..      PUSH     {r4,lr}
        0x00000ab6:    2100        .!      MOVS     r1,#0
        0x00000ab8:    7001        .p      STRB     r1,[r0,#0]
        0x00000aba:    7041        Ap      STRB     r1,[r0,#1]
        0x00000abc:    2120         !      MOVS     r1,#0x20
        0x00000abe:    1c80        ..      ADDS     r0,r0,#2
        0x00000ac0:    f7fffb5b    ..[.    BL       __aeabi_memclr ; 0x17a
        0x00000ac4:    bd10        ..      POP      {r4,pc}
    i.isEmpty
    isEmpty
        0x00000ac6:    7801        .x      LDRB     r1,[r0,#0]
        0x00000ac8:    7840        @x      LDRB     r0,[r0,#1]
        0x00000aca:    4281        .B      CMP      r1,r0
        0x00000acc:    d101        ..      BNE      0xad2 ; isEmpty + 12
        0x00000ace:    2001        .       MOVS     r0,#1
        0x00000ad0:    4770        pG      BX       lr
        0x00000ad2:    2000        .       MOVS     r0,#0
        0x00000ad4:    4770        pG      BX       lr
        0x00000ad6:    0000        ..      MOVS     r0,r0
    i.main
    main
        0x00000ad8:    b51c        ..      PUSH     {r2-r4,lr}
        0x00000ada:    2400        .$      MOVS     r4,#0
        0x00000adc:    4668        hF      MOV      r0,sp
        0x00000ade:    8084        ..      STRH     r4,[r0,#4]
        0x00000ae0:    2159        Y!      MOVS     r1,#0x59
        0x00000ae2:    2216        ."      MOVS     r2,#0x16
        0x00000ae4:    4d28        (M      LDR      r5,[pc,#160] ; [0xb88] = 0x50000100
        0x00000ae6:    2088        .       MOVS     r0,#0x88
        0x00000ae8:    e002        ..      B        0xaf0 ; main + 24
        0x00000aea:    6029        )`      STR      r1,[r5,#0]
        0x00000aec:    602a        *`      STR      r2,[r5,#0]
        0x00000aee:    6028        (`      STR      r0,[r5,#0]
        0x00000af0:    682b        +h      LDR      r3,[r5,#0]
        0x00000af2:    2b01        .+      CMP      r3,#1
        0x00000af4:    d1f9        ..      BNE      0xaea ; main + 18
        0x00000af6:    f7fffc85    ....    BL       SYS_Init ; 0x404
        0x00000afa:    602c        ,`      STR      r4,[r5,#0]
        0x00000afc:    2000        .       MOVS     r0,#0
        0x00000afe:    f7fffd97    ....    BL       UART_Init ; 0x630
        0x00000b02:    2001        .       MOVS     r0,#1
        0x00000b04:    f7fffd94    ....    BL       UART_Init ; 0x630
        0x00000b08:    4820         H      LDR      r0,[pc,#128] ; [0xb8c] = 0x20000090
        0x00000b0a:    f7ffffd3    ....    BL       init_q ; 0xab4
        0x00000b0e:    481f        .H      LDR      r0,[pc,#124] ; [0xb8c] = 0x20000090
        0x00000b10:    3022        "0      ADDS     r0,r0,#0x22
        0x00000b12:    f7ffffcf    ....    BL       init_q ; 0xab4
        0x00000b16:    a01e        ..      ADR      r0,{pc}+0x7a ; 0xb90
        0x00000b18:    f7fffe0c    ....    BL       __0printf$5 ; 0x734
        0x00000b1c:    a025        %.      ADR      r0,{pc}+0x98 ; 0xbb4
        0x00000b1e:    f7fffe09    ....    BL       __0printf$5 ; 0x734
        0x00000b22:    a02d        -.      ADR      r0,{pc}+0xb6 ; 0xbd8
        0x00000b24:    f7fffe06    ....    BL       __0printf$5 ; 0x734
        0x00000b28:    4d35        5M      LDR      r5,[pc,#212] ; [0xc00] = 0x40050000
        0x00000b2a:    220f        ."      MOVS     r2,#0xf
        0x00000b2c:    4933        3I      LDR      r1,[pc,#204] ; [0xbfc] = 0x2000002d
        0x00000b2e:    4628        (F      MOV      r0,r5
        0x00000b30:    f7fffdea    ....    BL       UART_Write ; 0x708
        0x00000b34:    4931        1I      LDR      r1,[pc,#196] ; [0xbfc] = 0x2000002d
        0x00000b36:    4e33        3N      LDR      r6,[pc,#204] ; [0xc04] = 0x40150000
        0x00000b38:    220f        ."      MOVS     r2,#0xf
        0x00000b3a:    310f        .1      ADDS     r1,r1,#0xf
        0x00000b3c:    4630        0F      MOV      r0,r6
        0x00000b3e:    f7fffde3    ....    BL       UART_Write ; 0x708
        0x00000b42:    2101        .!      MOVS     r1,#1
        0x00000b44:    4628        (F      MOV      r0,r5
        0x00000b46:    f7fffd49    ..I.    BL       UART_EnableInt ; 0x5dc
        0x00000b4a:    2101        .!      MOVS     r1,#1
        0x00000b4c:    4630        0F      MOV      r0,r6
        0x00000b4e:    f7fffd45    ..E.    BL       UART_EnableInt ; 0x5dc
        0x00000b52:    4d2d        -M      LDR      r5,[pc,#180] ; [0xc08] = 0x50004200
        0x00000b54:    4e2d        -N      LDR      r6,[pc,#180] ; [0xc0c] = 0xf4240
        0x00000b56:    2701        .'      MOVS     r7,#1
        0x00000b58:    490c        .I      LDR      r1,[pc,#48] ; [0xb8c] = 0x20000090
        0x00000b5a:    466b        kF      MOV      r3,sp
        0x00000b5c:    a22c        ,.      ADR      r2,{pc}+0xb4 ; 0xc10
        0x00000b5e:    3940        @9      SUBS     r1,r1,#0x40
        0x00000b60:    480a        .H      LDR      r0,[pc,#40] ; [0xb8c] = 0x20000090
        0x00000b62:    f7ffff71    ..q.    BL       check_uart_buffer ; 0xa48
        0x00000b66:    4668        hF      MOV      r0,sp
        0x00000b68:    8880        ..      LDRH     r0,[r0,#4]
        0x00000b6a:    2800        .(      CMP      r0,#0
        0x00000b6c:    d003        ..      BEQ      0xb76 ; main + 158
        0x00000b6e:    f000f86d    ..m.    BL       set_led_data ; 0xc4c
        0x00000b72:    4668        hF      MOV      r0,sp
        0x00000b74:    8084        ..      STRH     r4,[r0,#4]
        0x00000b76:    6ba8        .k      LDR      r0,[r5,#0x38]
        0x00000b78:    4078        x@      EORS     r0,r0,r7
        0x00000b7a:    63a8        .c      STR      r0,[r5,#0x38]
        0x00000b7c:    2000        .       MOVS     r0,#0
        0x00000b7e:    bf00        ..      NOP      
        0x00000b80:    1c40        @.      ADDS     r0,r0,#1
        0x00000b82:    42b0        .B      CMP      r0,r6
        0x00000b84:    d3fb        ..      BCC      0xb7e ; main + 166
        0x00000b86:    e7e7        ..      B        0xb58 ; main + 128
    $d
        0x00000b88:    50000100    ...P    DCD    1342177536
        0x00000b8c:    20000090    ...     DCD    536871056
        0x00000b90:    2a2a2a0a    .***    DCD    707406346
        0x00000b94:    2a2a2a2a    ****    DCD    707406378
        0x00000b98:    2a2a2a2a    ****    DCD    707406378
        0x00000b9c:    2a2a2a2a    ****    DCD    707406378
        0x00000ba0:    2a2a2a2a    ****    DCD    707406378
        0x00000ba4:    2a2a2a2a    ****    DCD    707406378
        0x00000ba8:    2a2a2a2a    ****    DCD    707406378
        0x00000bac:    2a2a2a2a    ****    DCD    707406378
        0x00000bb0:    000a2a2a    **..    DCD    666154
        0x00000bb4:    2a2a2a2a    ****    DCD    707406378
        0x00000bb8:    2a2a2a2a    ****    DCD    707406378
        0x00000bbc:    39594d2a    *MY9    DCD    962153770
        0x00000bc0:    5f383631    168_    DCD    1597519409
        0x00000bc4:    56495244    DRIV    DCD    1447645764
        0x00000bc8:    2a5f5245    ER_*    DCD    710890053
        0x00000bcc:    2a2a2a2a    ****    DCD    707406378
        0x00000bd0:    2a2a2a2a    ****    DCD    707406378
        0x00000bd4:    00000a2a    *...    DCD    2602
        0x00000bd8:    2a2a2a2a    ****    DCD    707406378
        0x00000bdc:    2a2a2a2a    ****    DCD    707406378
        0x00000be0:    2a2a2a2a    ****    DCD    707406378
        0x00000be4:    2a2a2a2a    ****    DCD    707406378
        0x00000be8:    2a2a2a2a    ****    DCD    707406378
        0x00000bec:    2a2a2a2a    ****    DCD    707406378
        0x00000bf0:    2a2a2a2a    ****    DCD    707406378
        0x00000bf4:    2a2a2a2a    ****    DCD    707406378
        0x00000bf8:    00000a2a    *...    DCD    2602
        0x00000bfc:    2000002d    -..     DCD    536870957
        0x00000c00:    40050000    ...@    DCD    1074069504
        0x00000c04:    40150000    ...@    DCD    1075118080
        0x00000c08:    50004200    .B.P    DCD    1342194176
        0x00000c0c:    000f4240    @B..    DCD    1000000
        0x00000c10:    54524155    UART    DCD    1414676821
        0x00000c14:    00000030    0...    DCD    48
    $t
    i.pop
    pop
        0x00000c18:    7842        Bx      LDRB     r2,[r0,#1]
        0x00000c1a:    1c81        ..      ADDS     r1,r0,#2
        0x00000c1c:    5c51        Q\      LDRB     r1,[r2,r1]
        0x00000c1e:    7842        Bx      LDRB     r2,[r0,#1]
        0x00000c20:    1c52        R.      ADDS     r2,r2,#1
        0x00000c22:    7042        Bp      STRB     r2,[r0,#1]
        0x00000c24:    7842        Bx      LDRB     r2,[r0,#1]
        0x00000c26:    2a20         *      CMP      r2,#0x20
        0x00000c28:    d301        ..      BCC      0xc2e ; pop + 22
        0x00000c2a:    2200        ."      MOVS     r2,#0
        0x00000c2c:    7042        Bp      STRB     r2,[r0,#1]
        0x00000c2e:    4608        .F      MOV      r0,r1
        0x00000c30:    4770        pG      BX       lr
    i.push
    push
        0x00000c32:    7803        .x      LDRB     r3,[r0,#0]
        0x00000c34:    1c82        ..      ADDS     r2,r0,#2
        0x00000c36:    5499        .T      STRB     r1,[r3,r2]
        0x00000c38:    7801        .x      LDRB     r1,[r0,#0]
        0x00000c3a:    1c49        I.      ADDS     r1,r1,#1
        0x00000c3c:    7001        .p      STRB     r1,[r0,#0]
        0x00000c3e:    7801        .x      LDRB     r1,[r0,#0]
        0x00000c40:    2920         )      CMP      r1,#0x20
        0x00000c42:    d301        ..      BCC      0xc48 ; push + 22
        0x00000c44:    2100        .!      MOVS     r1,#0
        0x00000c46:    7001        .p      STRB     r1,[r0,#0]
        0x00000c48:    4770        pG      BX       lr
        0x00000c4a:    0000        ..      MOVS     r0,r0
    i.set_led_data
    set_led_data
        0x00000c4c:    b510        ..      PUSH     {r4,lr}
        0x00000c4e:    4b0d        .K      LDR      r3,[pc,#52] ; [0xc84] = 0x50004280
        0x00000c50:    2201        ."      MOVS     r2,#1
        0x00000c52:    601a        .`      STR      r2,[r3,#0]
        0x00000c54:    490b        .I      LDR      r1,[pc,#44] ; [0xc84] = 0x50004280
        0x00000c56:    3980        .9      SUBS     r1,r1,#0x80
        0x00000c58:    6b8c        .k      LDR      r4,[r1,#0x38]
        0x00000c5a:    4054        T@      EORS     r4,r4,r2
        0x00000c5c:    638c        .c      STR      r4,[r1,#0x38]
        0x00000c5e:    490a        .I      LDR      r1,[pc,#40] ; [0xc88] = 0x40030000
        0x00000c60:    6208        .b      STR      r0,[r1,#0x20]
        0x00000c62:    6808        .h      LDR      r0,[r1,#0]
        0x00000c64:    4310        .C      ORRS     r0,r0,r2
        0x00000c66:    6008        .`      STR      r0,[r1,#0]
        0x00000c68:    6808        .h      LDR      r0,[r1,#0]
        0x00000c6a:    07c0        ..      LSLS     r0,r0,#31
        0x00000c6c:    d1fc        ..      BNE      0xc68 ; set_led_data + 28
        0x00000c6e:    bf00        ..      NOP      
        0x00000c70:    bf00        ..      NOP      
        0x00000c72:    bf00        ..      NOP      
        0x00000c74:    609a        .`      STR      r2,[r3,#8]
        0x00000c76:    bf00        ..      NOP      
        0x00000c78:    bf00        ..      NOP      
        0x00000c7a:    bf00        ..      NOP      
        0x00000c7c:    2000        .       MOVS     r0,#0
        0x00000c7e:    6098        .`      STR      r0,[r3,#8]
        0x00000c80:    6018        .`      STR      r0,[r3,#0]
        0x00000c82:    bd10        ..      POP      {r4,pc}
    $d
        0x00000c84:    50004280    .B.P    DCD    1342194304
        0x00000c88:    40030000    ...@    DCD    1073938432
    $t
    i.stackDump
    stackDump
        0x00000c8c:    b510        ..      PUSH     {r4,lr}
        0x00000c8e:    4604        .F      MOV      r4,r0
        0x00000c90:    6801        .h      LDR      r1,[r0,#0]
        0x00000c92:    a010        ..      ADR      r0,{pc}+0x42 ; 0xcd4
        0x00000c94:    f7fffd4e    ..N.    BL       __0printf$5 ; 0x734
        0x00000c98:    a011        ..      ADR      r0,{pc}+0x48 ; 0xce0
        0x00000c9a:    6861        ah      LDR      r1,[r4,#4]
        0x00000c9c:    f7fffd4a    ..J.    BL       __0printf$5 ; 0x734
        0x00000ca0:    a012        ..      ADR      r0,{pc}+0x4c ; 0xcec
        0x00000ca2:    68a1        .h      LDR      r1,[r4,#8]
        0x00000ca4:    f7fffd46    ..F.    BL       __0printf$5 ; 0x734
        0x00000ca8:    a013        ..      ADR      r0,{pc}+0x50 ; 0xcf8
        0x00000caa:    68e1        .h      LDR      r1,[r4,#0xc]
        0x00000cac:    f7fffd42    ..B.    BL       __0printf$5 ; 0x734
        0x00000cb0:    a014        ..      ADR      r0,{pc}+0x54 ; 0xd04
        0x00000cb2:    6921        !i      LDR      r1,[r4,#0x10]
        0x00000cb4:    f7fffd3e    ..>.    BL       __0printf$5 ; 0x734
        0x00000cb8:    a015        ..      ADR      r0,{pc}+0x58 ; 0xd10
        0x00000cba:    6961        ai      LDR      r1,[r4,#0x14]
        0x00000cbc:    f7fffd3a    ..:.    BL       __0printf$5 ; 0x734
        0x00000cc0:    a016        ..      ADR      r0,{pc}+0x5c ; 0xd1c
        0x00000cc2:    69a1        .i      LDR      r1,[r4,#0x18]
        0x00000cc4:    f7fffd36    ..6.    BL       __0printf$5 ; 0x734
        0x00000cc8:    a017        ..      ADR      r0,{pc}+0x60 ; 0xd28
        0x00000cca:    69e1        .i      LDR      r1,[r4,#0x1c]
        0x00000ccc:    f7fffd32    ..2.    BL       __0printf$5 ; 0x734
        0x00000cd0:    bd10        ..      POP      {r4,pc}
    $d
        0x00000cd2:    0000        ..      DCW    0
        0x00000cd4:    20203072    r0      DCD    538980466
        0x00000cd8:    7830203d    = 0x    DCD    2016419901
        0x00000cdc:    000a7825    %x..    DCD    686117
        0x00000ce0:    20203172    r1      DCD    538980722
        0x00000ce4:    7830203d    = 0x    DCD    2016419901
        0x00000ce8:    000a7825    %x..    DCD    686117
        0x00000cec:    20203272    r2      DCD    538980978
        0x00000cf0:    7830203d    = 0x    DCD    2016419901
        0x00000cf4:    000a7825    %x..    DCD    686117
        0x00000cf8:    20203372    r3      DCD    538981234
        0x00000cfc:    7830203d    = 0x    DCD    2016419901
        0x00000d00:    000a7825    %x..    DCD    686117
        0x00000d04:    20323172    r12     DCD    540160370
        0x00000d08:    7830203d    = 0x    DCD    2016419901
        0x00000d0c:    000a7825    %x..    DCD    686117
        0x00000d10:    2020726c    lr      DCD    538997356
        0x00000d14:    7830203d    = 0x    DCD    2016419901
        0x00000d18:    000a7825    %x..    DCD    686117
        0x00000d1c:    20206370    pc      DCD    538993520
        0x00000d20:    7830203d    = 0x    DCD    2016419901
        0x00000d24:    000a7825    %x..    DCD    686117
        0x00000d28:    20727370    psr     DCD    544371568
        0x00000d2c:    7830203d    = 0x    DCD    2016419901
        0x00000d30:    000a7825    %x..    DCD    686117
    $d.realdata
    .constdata
        0x00000d34:    00000000    ....    DCD    0
        0x00000d38:    00000004    ....    DCD    4
        0x00000d3c:    0000000c    ....    DCD    12
        0x00000d40:    00000024    $...    DCD    36
        0x00000d44:    00000000    ....    DCD    0
        0x00000d48:    00000004    ....    DCD    4
        0x00000d4c:    0000002c    ,...    DCD    44
        0x00000d50:    00000000    ....    DCD    0
        0x00000d54:    00000000    ....    DCD    0
        0x00000d58:    00000004    ....    DCD    4
        0x00000d5c:    0000002c    ,...    DCD    44
        0x00000d60:    00000000    ....    DCD    0
    .constdata
        0x00000d64:    00b71b00    ....    DCD    12000000
        0x00000d68:    00000000    ....    DCD    0
        0x00000d6c:    00000000    ....    DCD    0
        0x00000d70:    01518000    ..Q.    DCD    22118400
        0x00000d74:    00b71b00    ....    DCD    12000000
        0x00000d78:    00000000    ....    DCD    0
        0x00000d7c:    00000000    ....    DCD    0
        0x00000d80:    01518000    ..Q.    DCD    22118400
        0x00000d84:    00b71b00    ....    DCD    12000000
        0x00000d88:    00000000    ....    DCD    0
        0x00000d8c:    00000000    ....    DCD    0
        0x00000d90:    01518000    ..Q.    DCD    22118400
    Region$$Table$$Base
        0x00000d94:    00000db4    ....    DCD    3508
        0x00000d98:    20000000    ...     DCD    536870912
        0x00000d9c:    00000050    P...    DCD    80
        0x00000da0:    00000754    T...    DCD    1876
        0x00000da4:    00000e04    ....    DCD    3588
        0x00000da8:    20000050    P..     DCD    536870992
        0x00000dac:    000004a8    ....    DCD    1192
        0x00000db0:    00000764    d...    DCD    1892
    Region$$Table$$Limit

** Section #2 'ER_RW' (SHT_PROGBITS) [SHF_ALLOC + SHF_WRITE]
    Size   : 80 bytes (alignment 4)
    Address: 0x20000000


** Section #3 'ER_ZI' (SHT_NOBITS) [SHF_ALLOC + SHF_WRITE]
    Size   : 1192 bytes (alignment 8)
    Address: 0x20000050


** Section #4 '.debug_abbrev' (SHT_PROGBITS)
    Size   : 1476 bytes


** Section #5 '.debug_frame' (SHT_PROGBITS)
    Size   : 1524 bytes


** Section #6 '.debug_info' (SHT_PROGBITS)
    Size   : 19640 bytes


** Section #7 '.debug_line' (SHT_PROGBITS)
    Size   : 5888 bytes


** Section #8 '.debug_loc' (SHT_PROGBITS)
    Size   : 2176 bytes


** Section #9 '.debug_macinfo' (SHT_PROGBITS)
    Size   : 169496 bytes


** Section #10 '.debug_pubnames' (SHT_PROGBITS)
    Size   : 1261 bytes


** Section #11 '.symtab' (SHT_SYMTAB)
    Size   : 5408 bytes (alignment 4)
    String table #12 '.strtab'
    Last local symbol no. 188


** Section #12 '.strtab' (SHT_STRTAB)
    Size   : 4264 bytes


** Section #13 '.note' (SHT_NOTE)
    Size   : 28 bytes (alignment 4)


** Section #14 '.comment' (SHT_PROGBITS)
    Size   : 11432 bytes


** Section #15 '.shstrtab' (SHT_STRTAB)
    Size   : 156 bytes


